
../target/release/coroutine_overhead:     file format elf64-x86-64


Disassembly of section .init:

0000000000005a50 <_init>:
    5a50:	f3 0f 1e fa          	endbr64 
    5a54:	48 83 ec 08          	sub    $0x8,%rsp
    5a58:	48 8b 05 d1 8f 24 00 	mov    0x248fd1(%rip),%rax        # 24ea30 <__gmon_start__>
    5a5f:	48 85 c0             	test   %rax,%rax
    5a62:	74 02                	je     5a66 <_init+0x16>
    5a64:	ff d0                	callq  *%rax
    5a66:	48 83 c4 08          	add    $0x8,%rsp
    5a6a:	c3                   	retq   

Disassembly of section .plt:

0000000000005a70 <.plt>:
    5a70:	ff 35 72 8e 24 00    	pushq  0x248e72(%rip)        # 24e8e8 <_GLOBAL_OFFSET_TABLE_+0x8>
    5a76:	ff 25 74 8e 24 00    	jmpq   *0x248e74(%rip)        # 24e8f0 <_GLOBAL_OFFSET_TABLE_+0x10>
    5a7c:	0f 1f 40 00          	nopl   0x0(%rax)

0000000000005a80 <__fxstat64@plt>:
    5a80:	ff 25 72 8e 24 00    	jmpq   *0x248e72(%rip)        # 24e8f8 <__fxstat64@GLIBC_2.2.5>
    5a86:	68 00 00 00 00       	pushq  $0x0
    5a8b:	e9 e0 ff ff ff       	jmpq   5a70 <.plt>

0000000000005a90 <__tls_get_addr@plt>:
    5a90:	ff 25 6a 8e 24 00    	jmpq   *0x248e6a(%rip)        # 24e900 <__tls_get_addr@GLIBC_2.3>
    5a96:	68 01 00 00 00       	pushq  $0x1
    5a9b:	e9 d0 ff ff ff       	jmpq   5a70 <.plt>

0000000000005aa0 <__xstat64@plt>:
    5aa0:	ff 25 62 8e 24 00    	jmpq   *0x248e62(%rip)        # 24e908 <__xstat64@GLIBC_2.2.5>
    5aa6:	68 02 00 00 00       	pushq  $0x2
    5aab:	e9 c0 ff ff ff       	jmpq   5a70 <.plt>

0000000000005ab0 <_Unwind_Resume@plt>:
    5ab0:	ff 25 5a 8e 24 00    	jmpq   *0x248e5a(%rip)        # 24e910 <_Unwind_Resume@GCC_3.0>
    5ab6:	68 03 00 00 00       	pushq  $0x3
    5abb:	e9 b0 ff ff ff       	jmpq   5a70 <.plt>

Disassembly of section .plt.got:

0000000000005ac0 <__cxa_finalize@plt>:
    5ac0:	ff 25 3a 91 24 00    	jmpq   *0x24913a(%rip)        # 24ec00 <__cxa_finalize@GLIBC_2.2.5>
    5ac6:	66 90                	xchg   %ax,%ax

Disassembly of section .text:

0000000000005ad0 <_ZN3std9panicking11begin_panic17h3e5bd4fe70e898a7E>:
    5ad0:	41 56                	push   %r14
    5ad2:	53                   	push   %rbx
    5ad3:	48 83 ec 18          	sub    $0x18,%rsp
    5ad7:	49 89 f6             	mov    %rsi,%r14
    5ada:	48 89 fb             	mov    %rdi,%rbx
    5add:	48 89 d7             	mov    %rdx,%rdi
    5ae0:	ff 15 b2 90 24 00    	callq  *0x2490b2(%rip)        # 24eb98 <_GLOBAL_OFFSET_TABLE_+0x2b8>
    5ae6:	48 89 1c 24          	mov    %rbx,(%rsp)
    5aea:	4c 89 74 24 08       	mov    %r14,0x8(%rsp)
    5aef:	48 89 44 24 10       	mov    %rax,0x10(%rsp)
    5af4:	48 89 e7             	mov    %rsp,%rdi
    5af7:	e8 14 3c 00 00       	callq  9710 <_ZN3std10sys_common9backtrace26__rust_end_short_backtrace17h88d8f6d3bab2646dE>
    5afc:	0f 0b                	ud2    
    5afe:	66 90                	xchg   %ax,%ax

0000000000005b00 <_ZN5alloc7raw_vec19RawVec$LT$T$C$A$GT$7reserve21do_reserve_and_handle17h40f2ba609fa87e0bE>:
    5b00:	41 57                	push   %r15
    5b02:	41 56                	push   %r14
    5b04:	53                   	push   %rbx
    5b05:	48 83 ec 30          	sub    $0x30,%rsp
    5b09:	48 ff c6             	inc    %rsi
    5b0c:	0f 84 97 00 00 00    	je     5ba9 <_ZN5alloc7raw_vec19RawVec$LT$T$C$A$GT$7reserve21do_reserve_and_handle17h40f2ba609fa87e0bE+0xa9>
    5b12:	49 89 fe             	mov    %rdi,%r14
    5b15:	48 8b 4f 08          	mov    0x8(%rdi),%rcx
    5b19:	48 8d 04 09          	lea    (%rcx,%rcx,1),%rax
    5b1d:	48 39 f0             	cmp    %rsi,%rax
    5b20:	48 0f 47 f0          	cmova  %rax,%rsi
    5b24:	48 83 fe 05          	cmp    $0x5,%rsi
    5b28:	41 bf 04 00 00 00    	mov    $0x4,%r15d
    5b2e:	4c 0f 43 fe          	cmovae %rsi,%r15
    5b32:	ba 00 01 00 00       	mov    $0x100,%edx
    5b37:	31 db                	xor    %ebx,%ebx
    5b39:	4c 89 f8             	mov    %r15,%rax
    5b3c:	48 f7 e2             	mul    %rdx
    5b3f:	0f 91 c3             	setno  %bl
    5b42:	48 c1 e3 03          	shl    $0x3,%rbx
    5b46:	48 85 c9             	test   %rcx,%rcx
    5b49:	74 1c                	je     5b67 <_ZN5alloc7raw_vec19RawVec$LT$T$C$A$GT$7reserve21do_reserve_and_handle17h40f2ba609fa87e0bE+0x67>
    5b4b:	49 8b 16             	mov    (%r14),%rdx
    5b4e:	48 c1 e1 08          	shl    $0x8,%rcx
    5b52:	48 89 54 24 18       	mov    %rdx,0x18(%rsp)
    5b57:	48 89 4c 24 20       	mov    %rcx,0x20(%rsp)
    5b5c:	48 c7 44 24 28 08 00 	movq   $0x8,0x28(%rsp)
    5b63:	00 00 
    5b65:	eb 09                	jmp    5b70 <_ZN5alloc7raw_vec19RawVec$LT$T$C$A$GT$7reserve21do_reserve_and_handle17h40f2ba609fa87e0bE+0x70>
    5b67:	48 c7 44 24 18 00 00 	movq   $0x0,0x18(%rsp)
    5b6e:	00 00 
    5b70:	48 89 e7             	mov    %rsp,%rdi
    5b73:	48 8d 4c 24 18       	lea    0x18(%rsp),%rcx
    5b78:	48 89 c6             	mov    %rax,%rsi
    5b7b:	48 89 da             	mov    %rbx,%rdx
    5b7e:	e8 cd 59 00 00       	callq  b550 <_ZN5alloc7raw_vec11finish_grow17hf2d7f6f1eb9649b1E>
    5b83:	83 3c 24 01          	cmpl   $0x1,(%rsp)
    5b87:	74 16                	je     5b9f <_ZN5alloc7raw_vec19RawVec$LT$T$C$A$GT$7reserve21do_reserve_and_handle17h40f2ba609fa87e0bE+0x9f>
    5b89:	48 8b 44 24 08       	mov    0x8(%rsp),%rax
    5b8e:	49 89 06             	mov    %rax,(%r14)
    5b91:	4d 89 7e 08          	mov    %r15,0x8(%r14)
    5b95:	48 83 c4 30          	add    $0x30,%rsp
    5b99:	5b                   	pop    %rbx
    5b9a:	41 5e                	pop    %r14
    5b9c:	41 5f                	pop    %r15
    5b9e:	c3                   	retq   
    5b9f:	48 8b 74 24 10       	mov    0x10(%rsp),%rsi
    5ba4:	48 85 f6             	test   %rsi,%rsi
    5ba7:	75 08                	jne    5bb1 <_ZN5alloc7raw_vec19RawVec$LT$T$C$A$GT$7reserve21do_reserve_and_handle17h40f2ba609fa87e0bE+0xb1>
    5ba9:	ff 15 91 91 24 00    	callq  *0x249191(%rip)        # 24ed40 <_GLOBAL_OFFSET_TABLE_+0x460>
    5baf:	0f 0b                	ud2    
    5bb1:	48 8b 7c 24 08       	mov    0x8(%rsp),%rdi
    5bb6:	ff 15 34 92 24 00    	callq  *0x249234(%rip)        # 24edf0 <_GLOBAL_OFFSET_TABLE_+0x510>
    5bbc:	0f 0b                	ud2    
    5bbe:	66 90                	xchg   %ax,%ax

0000000000005bc0 <_ZN5alloc7raw_vec19RawVec$LT$T$C$A$GT$7reserve21do_reserve_and_handle17h5a6a8831957c972cE>:
    5bc0:	41 57                	push   %r15
    5bc2:	41 56                	push   %r14
    5bc4:	53                   	push   %rbx
    5bc5:	48 83 ec 30          	sub    $0x30,%rsp
    5bc9:	48 01 d6             	add    %rdx,%rsi
    5bcc:	0f 82 9b 00 00 00    	jb     5c6d <_ZN5alloc7raw_vec19RawVec$LT$T$C$A$GT$7reserve21do_reserve_and_handle17h5a6a8831957c972cE+0xad>
    5bd2:	49 89 fe             	mov    %rdi,%r14
    5bd5:	48 8b 4f 08          	mov    0x8(%rdi),%rcx
    5bd9:	48 8d 04 09          	lea    (%rcx,%rcx,1),%rax
    5bdd:	48 39 f0             	cmp    %rsi,%rax
    5be0:	48 0f 47 f0          	cmova  %rax,%rsi
    5be4:	48 83 fe 05          	cmp    $0x5,%rsi
    5be8:	41 bf 04 00 00 00    	mov    $0x4,%r15d
    5bee:	4c 0f 43 fe          	cmovae %rsi,%r15
    5bf2:	ba 18 00 00 00       	mov    $0x18,%edx
    5bf7:	31 db                	xor    %ebx,%ebx
    5bf9:	4c 89 f8             	mov    %r15,%rax
    5bfc:	48 f7 e2             	mul    %rdx
    5bff:	0f 91 c3             	setno  %bl
    5c02:	48 c1 e3 03          	shl    $0x3,%rbx
    5c06:	48 85 c9             	test   %rcx,%rcx
    5c09:	74 20                	je     5c2b <_ZN5alloc7raw_vec19RawVec$LT$T$C$A$GT$7reserve21do_reserve_and_handle17h5a6a8831957c972cE+0x6b>
    5c0b:	49 8b 16             	mov    (%r14),%rdx
    5c0e:	48 c1 e1 03          	shl    $0x3,%rcx
    5c12:	48 8d 0c 49          	lea    (%rcx,%rcx,2),%rcx
    5c16:	48 89 54 24 18       	mov    %rdx,0x18(%rsp)
    5c1b:	48 89 4c 24 20       	mov    %rcx,0x20(%rsp)
    5c20:	48 c7 44 24 28 08 00 	movq   $0x8,0x28(%rsp)
    5c27:	00 00 
    5c29:	eb 09                	jmp    5c34 <_ZN5alloc7raw_vec19RawVec$LT$T$C$A$GT$7reserve21do_reserve_and_handle17h5a6a8831957c972cE+0x74>
    5c2b:	48 c7 44 24 18 00 00 	movq   $0x0,0x18(%rsp)
    5c32:	00 00 
    5c34:	48 89 e7             	mov    %rsp,%rdi
    5c37:	48 8d 4c 24 18       	lea    0x18(%rsp),%rcx
    5c3c:	48 89 c6             	mov    %rax,%rsi
    5c3f:	48 89 da             	mov    %rbx,%rdx
    5c42:	e8 09 59 00 00       	callq  b550 <_ZN5alloc7raw_vec11finish_grow17hf2d7f6f1eb9649b1E>
    5c47:	83 3c 24 01          	cmpl   $0x1,(%rsp)
    5c4b:	74 16                	je     5c63 <_ZN5alloc7raw_vec19RawVec$LT$T$C$A$GT$7reserve21do_reserve_and_handle17h5a6a8831957c972cE+0xa3>
    5c4d:	48 8b 44 24 08       	mov    0x8(%rsp),%rax
    5c52:	49 89 06             	mov    %rax,(%r14)
    5c55:	4d 89 7e 08          	mov    %r15,0x8(%r14)
    5c59:	48 83 c4 30          	add    $0x30,%rsp
    5c5d:	5b                   	pop    %rbx
    5c5e:	41 5e                	pop    %r14
    5c60:	41 5f                	pop    %r15
    5c62:	c3                   	retq   
    5c63:	48 8b 74 24 10       	mov    0x10(%rsp),%rsi
    5c68:	48 85 f6             	test   %rsi,%rsi
    5c6b:	75 08                	jne    5c75 <_ZN5alloc7raw_vec19RawVec$LT$T$C$A$GT$7reserve21do_reserve_and_handle17h5a6a8831957c972cE+0xb5>
    5c6d:	ff 15 cd 90 24 00    	callq  *0x2490cd(%rip)        # 24ed40 <_GLOBAL_OFFSET_TABLE_+0x460>
    5c73:	0f 0b                	ud2    
    5c75:	48 8b 7c 24 08       	mov    0x8(%rsp),%rdi
    5c7a:	ff 15 70 91 24 00    	callq  *0x249170(%rip)        # 24edf0 <_GLOBAL_OFFSET_TABLE_+0x510>
    5c80:	0f 0b                	ud2    
    5c82:	66 2e 0f 1f 84 00 00 	nopw   %cs:0x0(%rax,%rax,1)
    5c89:	00 00 00 
    5c8c:	0f 1f 40 00          	nopl   0x0(%rax)

0000000000005c90 <_ZN5alloc7raw_vec19RawVec$LT$T$C$A$GT$7reserve21do_reserve_and_handle17h7c3cf4a9986b62beE>:
    5c90:	41 56                	push   %r14
    5c92:	53                   	push   %rbx
    5c93:	48 83 ec 38          	sub    $0x38,%rsp
    5c97:	48 01 d6             	add    %rdx,%rsi
    5c9a:	0f 82 81 00 00 00    	jb     5d21 <_ZN5alloc7raw_vec19RawVec$LT$T$C$A$GT$7reserve21do_reserve_and_handle17h7c3cf4a9986b62beE+0x91>
    5ca0:	49 89 fe             	mov    %rdi,%r14
    5ca3:	48 8b 47 08          	mov    0x8(%rdi),%rax
    5ca7:	48 8d 0c 00          	lea    (%rax,%rax,1),%rcx
    5cab:	48 39 f1             	cmp    %rsi,%rcx
    5cae:	48 0f 47 f1          	cmova  %rcx,%rsi
    5cb2:	48 83 fe 09          	cmp    $0x9,%rsi
    5cb6:	bb 08 00 00 00       	mov    $0x8,%ebx
    5cbb:	48 0f 43 de          	cmovae %rsi,%rbx
    5cbf:	48 85 c0             	test   %rax,%rax
    5cc2:	74 18                	je     5cdc <_ZN5alloc7raw_vec19RawVec$LT$T$C$A$GT$7reserve21do_reserve_and_handle17h7c3cf4a9986b62beE+0x4c>
    5cc4:	49 8b 0e             	mov    (%r14),%rcx
    5cc7:	48 89 4c 24 20       	mov    %rcx,0x20(%rsp)
    5ccc:	48 89 44 24 28       	mov    %rax,0x28(%rsp)
    5cd1:	48 c7 44 24 30 01 00 	movq   $0x1,0x30(%rsp)
    5cd8:	00 00 
    5cda:	eb 09                	jmp    5ce5 <_ZN5alloc7raw_vec19RawVec$LT$T$C$A$GT$7reserve21do_reserve_and_handle17h7c3cf4a9986b62beE+0x55>
    5cdc:	48 c7 44 24 20 00 00 	movq   $0x0,0x20(%rsp)
    5ce3:	00 00 
    5ce5:	48 8d 7c 24 08       	lea    0x8(%rsp),%rdi
    5cea:	48 8d 4c 24 20       	lea    0x20(%rsp),%rcx
    5cef:	ba 01 00 00 00       	mov    $0x1,%edx
    5cf4:	48 89 de             	mov    %rbx,%rsi
    5cf7:	e8 54 58 00 00       	callq  b550 <_ZN5alloc7raw_vec11finish_grow17hf2d7f6f1eb9649b1E>
    5cfc:	83 7c 24 08 01       	cmpl   $0x1,0x8(%rsp)
    5d01:	74 14                	je     5d17 <_ZN5alloc7raw_vec19RawVec$LT$T$C$A$GT$7reserve21do_reserve_and_handle17h7c3cf4a9986b62beE+0x87>
    5d03:	48 8b 44 24 10       	mov    0x10(%rsp),%rax
    5d08:	49 89 06             	mov    %rax,(%r14)
    5d0b:	49 89 5e 08          	mov    %rbx,0x8(%r14)
    5d0f:	48 83 c4 38          	add    $0x38,%rsp
    5d13:	5b                   	pop    %rbx
    5d14:	41 5e                	pop    %r14
    5d16:	c3                   	retq   
    5d17:	48 8b 74 24 18       	mov    0x18(%rsp),%rsi
    5d1c:	48 85 f6             	test   %rsi,%rsi
    5d1f:	75 08                	jne    5d29 <_ZN5alloc7raw_vec19RawVec$LT$T$C$A$GT$7reserve21do_reserve_and_handle17h7c3cf4a9986b62beE+0x99>
    5d21:	ff 15 19 90 24 00    	callq  *0x249019(%rip)        # 24ed40 <_GLOBAL_OFFSET_TABLE_+0x460>
    5d27:	0f 0b                	ud2    
    5d29:	48 8b 7c 24 10       	mov    0x10(%rsp),%rdi
    5d2e:	ff 15 bc 90 24 00    	callq  *0x2490bc(%rip)        # 24edf0 <_GLOBAL_OFFSET_TABLE_+0x510>
    5d34:	0f 0b                	ud2    
    5d36:	66 2e 0f 1f 84 00 00 	nopw   %cs:0x0(%rax,%rax,1)
    5d3d:	00 00 00 

0000000000005d40 <_ZN3std2io8buffered9bufwriter18BufWriter$LT$W$GT$14write_all_cold17hadc55d3a1e8a760aE>:
    5d40:	41 57                	push   %r15
    5d42:	41 56                	push   %r14
    5d44:	41 54                	push   %r12
    5d46:	53                   	push   %rbx
    5d47:	50                   	push   %rax
    5d48:	48 89 d3             	mov    %rdx,%rbx
    5d4b:	49 89 f7             	mov    %rsi,%r15
    5d4e:	49 89 fe             	mov    %rdi,%r14
    5d51:	48 8b 47 08          	mov    0x8(%rdi),%rax
    5d55:	48 89 c1             	mov    %rax,%rcx
    5d58:	48 2b 4f 10          	sub    0x10(%rdi),%rcx
    5d5c:	48 39 d1             	cmp    %rdx,%rcx
    5d5f:	73 11                	jae    5d72 <_ZN3std2io8buffered9bufwriter18BufWriter$LT$W$GT$14write_all_cold17hadc55d3a1e8a760aE+0x32>
    5d61:	4c 89 f7             	mov    %r14,%rdi
    5d64:	e8 37 33 01 00       	callq  190a0 <_ZN3std2io8buffered9bufwriter18BufWriter$LT$W$GT$9flush_buf17h42d7bb3da917c719E>
    5d69:	48 85 c0             	test   %rax,%rax
    5d6c:	75 6e                	jne    5ddc <_ZN3std2io8buffered9bufwriter18BufWriter$LT$W$GT$14write_all_cold17hadc55d3a1e8a760aE+0x9c>
    5d6e:	49 8b 46 08          	mov    0x8(%r14),%rax
    5d72:	48 39 d8             	cmp    %rbx,%rax
    5d75:	76 21                	jbe    5d98 <_ZN3std2io8buffered9bufwriter18BufWriter$LT$W$GT$14write_all_cold17hadc55d3a1e8a760aE+0x58>
    5d77:	4d 8b 66 10          	mov    0x10(%r14),%r12
    5d7b:	49 8b 3e             	mov    (%r14),%rdi
    5d7e:	4c 01 e7             	add    %r12,%rdi
    5d81:	4c 89 fe             	mov    %r15,%rsi
    5d84:	48 89 da             	mov    %rbx,%rdx
    5d87:	ff 15 33 92 24 00    	callq  *0x249233(%rip)        # 24efc0 <memcpy@GLIBC_2.14>
    5d8d:	49 01 dc             	add    %rbx,%r12
    5d90:	4d 89 66 10          	mov    %r12,0x10(%r14)
    5d94:	31 c0                	xor    %eax,%eax
    5d96:	eb 44                	jmp    5ddc <_ZN3std2io8buffered9bufwriter18BufWriter$LT$W$GT$14write_all_cold17hadc55d3a1e8a760aE+0x9c>
    5d98:	41 c6 46 18 01       	movb   $0x1,0x18(%r14)
    5d9d:	4c 89 ff             	mov    %r15,%rdi
    5da0:	48 89 de             	mov    %rbx,%rsi
    5da3:	e8 88 45 01 00       	callq  1a330 <_ZN3std2io5Write9write_all17h06a84c8c5e2afdb6E>
    5da8:	48 89 04 24          	mov    %rax,(%rsp)
    5dac:	48 85 c0             	test   %rax,%rax
    5daf:	74 24                	je     5dd5 <_ZN3std2io8buffered9bufwriter18BufWriter$LT$W$GT$14write_all_cold17hadc55d3a1e8a760aE+0x95>
    5db1:	89 c1                	mov    %eax,%ecx
    5db3:	83 e1 03             	and    $0x3,%ecx
    5db6:	48 83 f9 02          	cmp    $0x2,%rcx
    5dba:	72 1b                	jb     5dd7 <_ZN3std2io8buffered9bufwriter18BufWriter$LT$W$GT$14write_all_cold17hadc55d3a1e8a760aE+0x97>
    5dbc:	83 f9 02             	cmp    $0x2,%ecx
    5dbf:	75 16                	jne    5dd7 <_ZN3std2io8buffered9bufwriter18BufWriter$LT$W$GT$14write_all_cold17hadc55d3a1e8a760aE+0x97>
    5dc1:	48 89 c1             	mov    %rax,%rcx
    5dc4:	48 c1 e9 20          	shr    $0x20,%rcx
    5dc8:	83 f9 09             	cmp    $0x9,%ecx
    5dcb:	75 0a                	jne    5dd7 <_ZN3std2io8buffered9bufwriter18BufWriter$LT$W$GT$14write_all_cold17hadc55d3a1e8a760aE+0x97>
    5dcd:	48 89 e7             	mov    %rsp,%rdi
    5dd0:	e8 2b 49 00 00       	callq  a700 <_ZN4core3ptr42drop_in_place$LT$std..io..error..Error$GT$17hfa6d6fa7d0097d1dE>
    5dd5:	31 c0                	xor    %eax,%eax
    5dd7:	41 c6 46 18 00       	movb   $0x0,0x18(%r14)
    5ddc:	48 83 c4 08          	add    $0x8,%rsp
    5de0:	5b                   	pop    %rbx
    5de1:	41 5c                	pop    %r12
    5de3:	41 5e                	pop    %r14
    5de5:	41 5f                	pop    %r15
    5de7:	c3                   	retq   
    5de8:	0f 1f 84 00 00 00 00 	nopl   0x0(%rax,%rax,1)
    5def:	00 

0000000000005df0 <_ZN3std7process5abort17h6b30b9d2be0cbbb9E>:
    5df0:	50                   	push   %rax
    5df1:	e8 2a d5 01 00       	callq  23320 <_ZN3std3sys4unix14abort_internal17h9571d6f4aa26a300E>
    5df6:	0f 0b                	ud2    
    5df8:	0f 1f 84 00 00 00 00 	nopl   0x0(%rax,%rax,1)
    5dff:	00 

0000000000005e00 <_ZN4core9panicking13assert_failed17hd1fbfb62dea1ebffE>:
    5e00:	48 83 ec 58          	sub    $0x58,%rsp
    5e04:	48 89 74 24 10       	mov    %rsi,0x10(%rsp)
    5e09:	48 89 54 24 18       	mov    %rdx,0x18(%rsp)
    5e0e:	0f 10 01             	movups (%rcx),%xmm0
    5e11:	0f 10 49 10          	movups 0x10(%rcx),%xmm1
    5e15:	0f 10 51 20          	movups 0x20(%rcx),%xmm2
    5e19:	0f 29 54 24 40       	movaps %xmm2,0x40(%rsp)
    5e1e:	0f 29 4c 24 30       	movaps %xmm1,0x30(%rsp)
    5e23:	0f 29 44 24 20       	movaps %xmm0,0x20(%rsp)
    5e28:	4c 89 04 24          	mov    %r8,(%rsp)
    5e2c:	48 8d 15 ed 69 24 00 	lea    0x2469ed(%rip),%rdx        # 24c820 <anon.301c5d4cbd7f8c5b61df91e2cad8fefb.0.llvm.13767110465242657722+0x9e8>
    5e33:	48 8d 74 24 10       	lea    0x10(%rsp),%rsi
    5e38:	48 8d 4c 24 18       	lea    0x18(%rsp),%rcx
    5e3d:	4c 8d 4c 24 20       	lea    0x20(%rsp),%r9
    5e42:	49 89 d0             	mov    %rdx,%r8
    5e45:	ff 15 85 8b 24 00    	callq  *0x248b85(%rip)        # 24e9d0 <_GLOBAL_OFFSET_TABLE_+0xf0>
    5e4b:	0f 0b                	ud2    
    5e4d:	0f 1f 00             	nopl   (%rax)

0000000000005e50 <_ZN4core9panicking13assert_failed17hf8ad0456b6bfcb2cE>:
    5e50:	48 83 ec 58          	sub    $0x58,%rsp
    5e54:	48 89 7c 24 10       	mov    %rdi,0x10(%rsp)
    5e59:	48 89 74 24 18       	mov    %rsi,0x18(%rsp)
    5e5e:	0f 10 02             	movups (%rdx),%xmm0
    5e61:	0f 10 4a 10          	movups 0x10(%rdx),%xmm1
    5e65:	0f 10 52 20          	movups 0x20(%rdx),%xmm2
    5e69:	0f 29 54 24 40       	movaps %xmm2,0x40(%rsp)
    5e6e:	0f 29 4c 24 30       	movaps %xmm1,0x30(%rsp)
    5e73:	0f 29 44 24 20       	movaps %xmm0,0x20(%rsp)
    5e78:	48 89 0c 24          	mov    %rcx,(%rsp)
    5e7c:	48 8d 15 bd 69 24 00 	lea    0x2469bd(%rip),%rdx        # 24c840 <anon.301c5d4cbd7f8c5b61df91e2cad8fefb.0.llvm.13767110465242657722+0xa08>
    5e83:	48 8d 74 24 10       	lea    0x10(%rsp),%rsi
    5e88:	48 8d 4c 24 18       	lea    0x18(%rsp),%rcx
    5e8d:	4c 8d 4c 24 20       	lea    0x20(%rsp),%r9
    5e92:	31 ff                	xor    %edi,%edi
    5e94:	49 89 d0             	mov    %rdx,%r8
    5e97:	ff 15 33 8b 24 00    	callq  *0x248b33(%rip)        # 24e9d0 <_GLOBAL_OFFSET_TABLE_+0xf0>
    5e9d:	0f 0b                	ud2    
    5e9f:	90                   	nop

0000000000005ea0 <_ZN3std4sync4once4Once10call_inner17h24a4058e29a8e3d1E>:
    5ea0:	55                   	push   %rbp
    5ea1:	41 57                	push   %r15
    5ea3:	41 56                	push   %r14
    5ea5:	41 55                	push   %r13
    5ea7:	41 54                	push   %r12
    5ea9:	53                   	push   %rbx
    5eaa:	48 83 ec 58          	sub    $0x58,%rsp
    5eae:	48 89 4c 24 50       	mov    %rcx,0x50(%rsp)
    5eb3:	48 89 54 24 48       	mov    %rdx,0x48(%rsp)
    5eb8:	89 74 24 04          	mov    %esi,0x4(%rsp)
    5ebc:	49 89 ff             	mov    %rdi,%r15
    5ebf:	48 8b 07             	mov    (%rdi),%rax
    5ec2:	45 31 ed             	xor    %r13d,%r13d
    5ec5:	4c 8b 25 7c 8d 24 00 	mov    0x248d7c(%rip),%r12        # 24ec48 <syscall@GLIBC_2.2.5>
    5ecc:	eb 20                	jmp    5eee <_ZN3std4sync4once4Once10call_inner17h24a4058e29a8e3d1E+0x4e>
    5ece:	66 90                	xchg   %ax,%ax
    5ed0:	80 7c 24 04 00       	cmpb   $0x0,0x4(%rsp)
    5ed5:	0f 84 b4 02 00 00    	je     618f <_ZN3std4sync4once4Once10call_inner17h24a4058e29a8e3d1E+0x2ef>
    5edb:	48 89 e8             	mov    %rbp,%rax
    5ede:	b9 02 00 00 00       	mov    $0x2,%ecx
    5ee3:	f0 49 0f b1 0f       	lock cmpxchg %rcx,(%r15)
    5ee8:	0f 84 ea 01 00 00    	je     60d8 <_ZN3std4sync4once4Once10call_inner17h24a4058e29a8e3d1E+0x238>
    5eee:	48 89 c5             	mov    %rax,%rbp
    5ef1:	48 85 c0             	test   %rax,%rax
    5ef4:	74 e5                	je     5edb <_ZN3std4sync4once4Once10call_inner17h24a4058e29a8e3d1E+0x3b>
    5ef6:	48 83 fd 01          	cmp    $0x1,%rbp
    5efa:	74 d4                	je     5ed0 <_ZN3std4sync4once4Once10call_inner17h24a4058e29a8e3d1E+0x30>
    5efc:	48 83 fd 03          	cmp    $0x3,%rbp
    5f00:	0f 84 19 02 00 00    	je     611f <_ZN3std4sync4once4Once10call_inner17h24a4058e29a8e3d1E+0x27f>
    5f06:	89 e8                	mov    %ebp,%eax
    5f08:	83 e0 03             	and    $0x3,%eax
    5f0b:	83 f8 02             	cmp    $0x2,%eax
    5f0e:	74 1e                	je     5f2e <_ZN3std4sync4once4Once10call_inner17h24a4058e29a8e3d1E+0x8e>
    5f10:	e9 c1 02 00 00       	jmpq   61d6 <_ZN3std4sync4once4Once10call_inner17h24a4058e29a8e3d1E+0x336>
    5f15:	66 2e 0f 1f 84 00 00 	nopw   %cs:0x0(%rax,%rax,1)
    5f1c:	00 00 00 
    5f1f:	90                   	nop
    5f20:	89 e8                	mov    %ebp,%eax
    5f22:	83 e0 03             	and    $0x3,%eax
    5f25:	83 f8 02             	cmp    $0x2,%eax
    5f28:	0f 85 a2 01 00 00    	jne    60d0 <_ZN3std4sync4once4Once10call_inner17h24a4058e29a8e3d1E+0x230>
    5f2e:	66 66 66 64 48 8b 04 	data16 data16 data16 mov %fs:0x0,%rax
    5f35:	25 00 00 00 00 
    5f3a:	49 89 c6             	mov    %rax,%r14
    5f3d:	0f b6 80 d8 ff ff ff 	movzbl -0x28(%rax),%eax
    5f44:	3c 01                	cmp    $0x1,%al
    5f46:	74 27                	je     5f6f <_ZN3std4sync4once4Once10call_inner17h24a4058e29a8e3d1E+0xcf>
    5f48:	84 c0                	test   %al,%al
    5f4a:	0f 85 de 01 00 00    	jne    612e <_ZN3std4sync4once4Once10call_inner17h24a4058e29a8e3d1E+0x28e>
    5f50:	49 8d be 90 ff ff ff 	lea    -0x70(%r14),%rdi
    5f57:	48 8d 35 b2 d6 01 00 	lea    0x1d6b2(%rip),%rsi        # 23610 <_ZN3std10sys_common11thread_info11THREAD_INFO7__getit7destroy17hb6be4b7c612a9236E>
    5f5e:	ff 15 84 8f 24 00    	callq  *0x248f84(%rip)        # 24eee8 <_GLOBAL_OFFSET_TABLE_+0x608>
    5f64:	4c 89 f0             	mov    %r14,%rax
    5f67:	41 c6 86 d8 ff ff ff 	movb   $0x1,-0x28(%r14)
    5f6e:	01 
    5f6f:	4c 89 f0             	mov    %r14,%rax
    5f72:	49 83 be 90 ff ff ff 	cmpq   $0x0,-0x70(%r14)
    5f79:	00 
    5f7a:	0f 85 c9 01 00 00    	jne    6149 <_ZN3std4sync4once4Once10call_inner17h24a4058e29a8e3d1E+0x2a9>
    5f80:	4c 89 f0             	mov    %r14,%rax
    5f83:	49 c7 86 90 ff ff ff 	movq   $0xffffffffffffffff,-0x70(%r14)
    5f8a:	ff ff ff ff 
    5f8e:	41 83 be 98 ff ff ff 	cmpl   $0x2,-0x68(%r14)
    5f95:	02 
    5f96:	75 28                	jne    5fc0 <_ZN3std4sync4once4Once10call_inner17h24a4058e29a8e3d1E+0x120>
    5f98:	31 ff                	xor    %edi,%edi
    5f9a:	ff 15 88 8d 24 00    	callq  *0x248d88(%rip)        # 24ed28 <_GLOBAL_OFFSET_TABLE_+0x448>
    5fa0:	48 89 c1             	mov    %rax,%rcx
    5fa3:	4c 89 f0             	mov    %r14,%rax
    5fa6:	49 c7 86 98 ff ff ff 	movq   $0x0,-0x68(%r14)
    5fad:	00 00 00 00 
    5fb1:	49 89 8e b0 ff ff ff 	mov    %rcx,-0x50(%r14)
    5fb8:	eb 10                	jmp    5fca <_ZN3std4sync4once4Once10call_inner17h24a4058e29a8e3d1E+0x12a>
    5fba:	66 0f 1f 44 00 00    	nopw   0x0(%rax,%rax,1)
    5fc0:	4c 89 f0             	mov    %r14,%rax
    5fc3:	49 8b 8e b0 ff ff ff 	mov    -0x50(%r14),%rcx
    5fca:	f0 48 83 01 01       	lock addq $0x1,(%rcx)
    5fcf:	0f 8e 9b 01 00 00    	jle    6170 <_ZN3std4sync4once4Once10call_inner17h24a4058e29a8e3d1E+0x2d0>
    5fd5:	4c 89 f0             	mov    %r14,%rax
    5fd8:	49 83 86 90 ff ff ff 	addq   $0x1,-0x70(%r14)
    5fdf:	01 
    5fe0:	48 85 c9             	test   %rcx,%rcx
    5fe3:	0f 84 45 01 00 00    	je     612e <_ZN3std4sync4once4Once10call_inner17h24a4058e29a8e3d1E+0x28e>
    5fe9:	48 89 e8             	mov    %rbp,%rax
    5fec:	48 83 e0 fc          	and    $0xfffffffffffffffc,%rax
    5ff0:	48 89 4c 24 08       	mov    %rcx,0x8(%rsp)
    5ff5:	c6 44 24 18 00       	movb   $0x0,0x18(%rsp)
    5ffa:	48 89 44 24 10       	mov    %rax,0x10(%rsp)
    5fff:	48 89 e8             	mov    %rbp,%rax
    6002:	48 8d 4c 24 0a       	lea    0xa(%rsp),%rcx
    6007:	f0 49 0f b1 0f       	lock cmpxchg %rcx,(%r15)
    600c:	0f 84 84 00 00 00    	je     6096 <_ZN3std4sync4once4Once10call_inner17h24a4058e29a8e3d1E+0x1f6>
    6012:	48 89 c5             	mov    %rax,%rbp
    6015:	48 8b 44 24 08       	mov    0x8(%rsp),%rax
    601a:	48 85 c0             	test   %rax,%rax
    601d:	0f 84 fd fe ff ff    	je     5f20 <_ZN3std4sync4once4Once10call_inner17h24a4058e29a8e3d1E+0x80>
    6023:	f0 48 83 28 01       	lock subq $0x1,(%rax)
    6028:	0f 85 f2 fe ff ff    	jne    5f20 <_ZN3std4sync4once4Once10call_inner17h24a4058e29a8e3d1E+0x80>
    602e:	48 8b 7c 24 08       	mov    0x8(%rsp),%rdi
    6033:	e8 a8 4d 01 00       	callq  1ade0 <_ZN5alloc4sync12Arc$LT$T$GT$9drop_slow17h52c4d420a21b2283E>
    6038:	e9 e3 fe ff ff       	jmpq   5f20 <_ZN3std4sync4once4Once10call_inner17h24a4058e29a8e3d1E+0x80>
    603d:	0f 1f 00             	nopl   (%rax)
    6040:	e8 db 87 01 00       	callq  1e820 <_ZN3std10sys_common11thread_info14current_thread17ha49a80a02fa03de5E>
    6045:	48 89 c3             	mov    %rax,%rbx
    6048:	48 85 c0             	test   %rax,%rax
    604b:	0f 84 23 01 00 00    	je     6174 <_ZN3std4sync4once4Once10call_inner17h24a4058e29a8e3d1E+0x2d4>
    6051:	f0 83 6b 28 01       	lock subl $0x1,0x28(%rbx)
    6056:	74 2f                	je     6087 <_ZN3std4sync4once4Once10call_inner17h24a4058e29a8e3d1E+0x1e7>
    6058:	48 89 dd             	mov    %rbx,%rbp
    605b:	48 83 c5 28          	add    $0x28,%rbp
    605f:	90                   	nop
    6060:	bf ca 00 00 00       	mov    $0xca,%edi
    6065:	48 89 ee             	mov    %rbp,%rsi
    6068:	ba 80 00 00 00       	mov    $0x80,%edx
    606d:	b9 ff ff ff ff       	mov    $0xffffffff,%ecx
    6072:	45 31 c0             	xor    %r8d,%r8d
    6075:	31 c0                	xor    %eax,%eax
    6077:	41 ff d4             	callq  *%r12
    607a:	b8 01 00 00 00       	mov    $0x1,%eax
    607f:	f0 44 0f b1 6d 00    	lock cmpxchg %r13d,0x0(%rbp)
    6085:	75 d9                	jne    6060 <_ZN3std4sync4once4Once10call_inner17h24a4058e29a8e3d1E+0x1c0>
    6087:	f0 48 83 2b 01       	lock subq $0x1,(%rbx)
    608c:	75 08                	jne    6096 <_ZN3std4sync4once4Once10call_inner17h24a4058e29a8e3d1E+0x1f6>
    608e:	48 89 df             	mov    %rbx,%rdi
    6091:	e8 4a 4d 01 00       	callq  1ade0 <_ZN5alloc4sync12Arc$LT$T$GT$9drop_slow17h52c4d420a21b2283E>
    6096:	8a 44 24 18          	mov    0x18(%rsp),%al
    609a:	84 c0                	test   %al,%al
    609c:	74 a2                	je     6040 <_ZN3std4sync4once4Once10call_inner17h24a4058e29a8e3d1E+0x1a0>
    609e:	48 8b 44 24 08       	mov    0x8(%rsp),%rax
    60a3:	48 85 c0             	test   %rax,%rax
    60a6:	74 28                	je     60d0 <_ZN3std4sync4once4Once10call_inner17h24a4058e29a8e3d1E+0x230>
    60a8:	f0 48 83 28 01       	lock subq $0x1,(%rax)
    60ad:	75 21                	jne    60d0 <_ZN3std4sync4once4Once10call_inner17h24a4058e29a8e3d1E+0x230>
    60af:	48 8b 7c 24 08       	mov    0x8(%rsp),%rdi
    60b4:	e8 27 4d 01 00       	callq  1ade0 <_ZN5alloc4sync12Arc$LT$T$GT$9drop_slow17h52c4d420a21b2283E>
    60b9:	49 8b 07             	mov    (%r15),%rax
    60bc:	e9 2d fe ff ff       	jmpq   5eee <_ZN3std4sync4once4Once10call_inner17h24a4058e29a8e3d1E+0x4e>
    60c1:	66 2e 0f 1f 84 00 00 	nopw   %cs:0x0(%rax,%rax,1)
    60c8:	00 00 00 
    60cb:	0f 1f 44 00 00       	nopl   0x0(%rax,%rax,1)
    60d0:	49 8b 07             	mov    (%r15),%rax
    60d3:	e9 16 fe ff ff       	jmpq   5eee <_ZN3std4sync4once4Once10call_inner17h24a4058e29a8e3d1E+0x4e>
    60d8:	4c 89 7c 24 38       	mov    %r15,0x38(%rsp)
    60dd:	48 c7 44 24 40 01 00 	movq   $0x1,0x40(%rsp)
    60e4:	00 00 
    60e6:	48 83 fd 01          	cmp    $0x1,%rbp
    60ea:	0f 94 44 24 10       	sete   0x10(%rsp)
    60ef:	48 c7 44 24 08 03 00 	movq   $0x3,0x8(%rsp)
    60f6:	00 00 
    60f8:	48 8d 74 24 08       	lea    0x8(%rsp),%rsi
    60fd:	48 8b 7c 24 48       	mov    0x48(%rsp),%rdi
    6102:	48 8b 44 24 50       	mov    0x50(%rsp),%rax
    6107:	ff 50 20             	callq  *0x20(%rax)
    610a:	48 8b 44 24 08       	mov    0x8(%rsp),%rax
    610f:	48 89 44 24 40       	mov    %rax,0x40(%rsp)
    6114:	48 8d 7c 24 38       	lea    0x38(%rsp),%rdi
    6119:	ff 15 89 8b 24 00    	callq  *0x248b89(%rip)        # 24eca8 <_GLOBAL_OFFSET_TABLE_+0x3c8>
    611f:	48 83 c4 58          	add    $0x58,%rsp
    6123:	5b                   	pop    %rbx
    6124:	41 5c                	pop    %r12
    6126:	41 5d                	pop    %r13
    6128:	41 5e                	pop    %r14
    612a:	41 5f                	pop    %r15
    612c:	5d                   	pop    %rbp
    612d:	c3                   	retq   
    612e:	48 8d 3d b4 9f 03 00 	lea    0x39fb4(%rip),%rdi        # 400e9 <str.0+0x1a9>
    6135:	48 8d 15 14 61 24 00 	lea    0x246114(%rip),%rdx        # 24c250 <anon.301c5d4cbd7f8c5b61df91e2cad8fefb.0.llvm.13767110465242657722+0x418>
    613c:	be 5e 00 00 00       	mov    $0x5e,%esi
    6141:	ff 15 01 88 24 00    	callq  *0x248801(%rip)        # 24e948 <_GLOBAL_OFFSET_TABLE_+0x68>
    6147:	0f 0b                	ud2    
    6149:	48 8d 3d 30 8d 03 00 	lea    0x38d30(%rip),%rdi        # 3ee80 <str.1+0x410>
    6150:	48 8d 0d f9 67 24 00 	lea    0x2467f9(%rip),%rcx        # 24c950 <anon.301c5d4cbd7f8c5b61df91e2cad8fefb.0.llvm.13767110465242657722+0xb18>
    6157:	4c 8d 05 2a 6a 24 00 	lea    0x246a2a(%rip),%r8        # 24cb88 <anon.301c5d4cbd7f8c5b61df91e2cad8fefb.0.llvm.13767110465242657722+0xd50>
    615e:	48 8d 54 24 38       	lea    0x38(%rsp),%rdx
    6163:	be 10 00 00 00       	mov    $0x10,%esi
    6168:	ff 15 52 8c 24 00    	callq  *0x248c52(%rip)        # 24edc0 <_GLOBAL_OFFSET_TABLE_+0x4e0>
    616e:	0f 0b                	ud2    
    6170:	0f 0b                	ud2    
    6172:	0f 0b                	ud2    
    6174:	48 8d 3d 6e 9f 03 00 	lea    0x39f6e(%rip),%rdi        # 400e9 <str.0+0x1a9>
    617b:	48 8d 15 ce 60 24 00 	lea    0x2460ce(%rip),%rdx        # 24c250 <anon.301c5d4cbd7f8c5b61df91e2cad8fefb.0.llvm.13767110465242657722+0x418>
    6182:	be 5e 00 00 00       	mov    $0x5e,%esi
    6187:	ff 15 bb 87 24 00    	callq  *0x2487bb(%rip)        # 24e948 <_GLOBAL_OFFSET_TABLE_+0x68>
    618d:	0f 0b                	ud2    
    618f:	48 8d 05 62 67 24 00 	lea    0x246762(%rip),%rax        # 24c8f8 <anon.301c5d4cbd7f8c5b61df91e2cad8fefb.0.llvm.13767110465242657722+0xac0>
    6196:	48 89 44 24 08       	mov    %rax,0x8(%rsp)
    619b:	48 c7 44 24 10 01 00 	movq   $0x1,0x10(%rsp)
    61a2:	00 00 
    61a4:	48 c7 44 24 18 00 00 	movq   $0x0,0x18(%rsp)
    61ab:	00 00 
    61ad:	48 8d 05 ec 9c 03 00 	lea    0x39cec(%rip),%rax        # 3fea0 <str.1+0x1430>
    61b4:	48 89 44 24 28       	mov    %rax,0x28(%rsp)
    61b9:	48 c7 44 24 30 00 00 	movq   $0x0,0x30(%rsp)
    61c0:	00 00 
    61c2:	48 8d 35 3f 67 24 00 	lea    0x24673f(%rip),%rsi        # 24c908 <anon.301c5d4cbd7f8c5b61df91e2cad8fefb.0.llvm.13767110465242657722+0xad0>
    61c9:	48 8d 7c 24 08       	lea    0x8(%rsp),%rdi
    61ce:	ff 15 64 88 24 00    	callq  *0x248864(%rip)        # 24ea38 <_GLOBAL_OFFSET_TABLE_+0x158>
    61d4:	0f 0b                	ud2    
    61d6:	48 8d 3d 2b a8 03 00 	lea    0x3a82b(%rip),%rdi        # 40a08 <str.1+0x608>
    61dd:	48 8d 15 fc 66 24 00 	lea    0x2466fc(%rip),%rdx        # 24c8e0 <anon.301c5d4cbd7f8c5b61df91e2cad8fefb.0.llvm.13767110465242657722+0xaa8>
    61e4:	be 39 00 00 00       	mov    $0x39,%esi
    61e9:	ff 15 e9 8c 24 00    	callq  *0x248ce9(%rip)        # 24eed8 <_GLOBAL_OFFSET_TABLE_+0x5f8>
    61ef:	0f 0b                	ud2    
    61f1:	48 89 c3             	mov    %rax,%rbx
    61f4:	48 8d 7c 24 38       	lea    0x38(%rsp),%rdi
    61f9:	ff 15 a9 8a 24 00    	callq  *0x248aa9(%rip)        # 24eca8 <_GLOBAL_OFFSET_TABLE_+0x3c8>
    61ff:	eb 38                	jmp    6239 <_ZN3std4sync4once4Once10call_inner17h24a4058e29a8e3d1E+0x399>
    6201:	ff 15 61 8d 24 00    	callq  *0x248d61(%rip)        # 24ef68 <_GLOBAL_OFFSET_TABLE_+0x688>
    6207:	0f 0b                	ud2    
    6209:	eb 00                	jmp    620b <_ZN3std4sync4once4Once10call_inner17h24a4058e29a8e3d1E+0x36b>
    620b:	48 89 c3             	mov    %rax,%rbx
    620e:	48 8b 44 24 08       	mov    0x8(%rsp),%rax
    6213:	48 85 c0             	test   %rax,%rax
    6216:	74 21                	je     6239 <_ZN3std4sync4once4Once10call_inner17h24a4058e29a8e3d1E+0x399>
    6218:	f0 48 83 28 01       	lock subq $0x1,(%rax)
    621d:	75 1a                	jne    6239 <_ZN3std4sync4once4Once10call_inner17h24a4058e29a8e3d1E+0x399>
    621f:	48 8b 7c 24 08       	mov    0x8(%rsp),%rdi
    6224:	e8 b7 4b 01 00       	callq  1ade0 <_ZN5alloc4sync12Arc$LT$T$GT$9drop_slow17h52c4d420a21b2283E>
    6229:	eb 0e                	jmp    6239 <_ZN3std4sync4once4Once10call_inner17h24a4058e29a8e3d1E+0x399>
    622b:	48 89 c3             	mov    %rax,%rbx
    622e:	4c 89 f0             	mov    %r14,%rax
    6231:	49 83 86 90 ff ff ff 	addq   $0x1,-0x70(%r14)
    6238:	01 
    6239:	48 89 df             	mov    %rbx,%rdi
    623c:	e8 6f f8 ff ff       	callq  5ab0 <_Unwind_Resume@plt>
    6241:	0f 0b                	ud2    
    6243:	66 2e 0f 1f 84 00 00 	nopw   %cs:0x0(%rax,%rax,1)
    624a:	00 00 00 
    624d:	0f 1f 00             	nopl   (%rax)

0000000000006250 <_ZN3std9panicking11panic_count17is_zero_slow_path17ha4a92fc01aa21fd3E>:
    6250:	50                   	push   %rax
    6251:	66 66 66 64 48 8b 04 	data16 data16 data16 mov %fs:0x0,%rax
    6258:	25 00 00 00 00 
    625d:	83 b8 e0 ff ff ff 01 	cmpl   $0x1,-0x20(%rax)
    6264:	75 09                	jne    626f <_ZN3std9panicking11panic_count17is_zero_slow_path17ha4a92fc01aa21fd3E+0x1f>
    6266:	48 8d 80 e8 ff ff ff 	lea    -0x18(%rax),%rax
    626d:	eb 0a                	jmp    6279 <_ZN3std9panicking11panic_count17is_zero_slow_path17ha4a92fc01aa21fd3E+0x29>
    626f:	e8 0c e7 00 00       	callq  14980 <_ZN3std6thread5local4fast12Key$LT$T$GT$14try_initialize17h4dc6411d7a92351bE>
    6274:	48 85 c0             	test   %rax,%rax
    6277:	74 09                	je     6282 <_ZN3std9panicking11panic_count17is_zero_slow_path17ha4a92fc01aa21fd3E+0x32>
    6279:	48 83 38 00          	cmpq   $0x0,(%rax)
    627d:	0f 94 c0             	sete   %al
    6280:	59                   	pop    %rcx
    6281:	c3                   	retq   
    6282:	48 8d 3d fb 9c 03 00 	lea    0x39cfb(%rip),%rdi        # 3ff84 <str.0+0x44>
    6289:	48 8d 0d 00 67 24 00 	lea    0x246700(%rip),%rcx        # 24c990 <anon.301c5d4cbd7f8c5b61df91e2cad8fefb.0.llvm.13767110465242657722+0xb58>
    6290:	4c 8d 05 a1 5f 24 00 	lea    0x245fa1(%rip),%r8        # 24c238 <anon.301c5d4cbd7f8c5b61df91e2cad8fefb.0.llvm.13767110465242657722+0x400>
    6297:	48 89 e2             	mov    %rsp,%rdx
    629a:	be 46 00 00 00       	mov    $0x46,%esi
    629f:	ff 15 1b 8b 24 00    	callq  *0x248b1b(%rip)        # 24edc0 <_GLOBAL_OFFSET_TABLE_+0x4e0>
    62a5:	0f 0b                	ud2    
    62a7:	66 0f 1f 84 00 00 00 	nopw   0x0(%rax,%rax,1)
    62ae:	00 00 

00000000000062b0 <_ZN3std9panicking3try7cleanup17h7307b5d29b19ee3bE>:
    62b0:	41 56                	push   %r14
    62b2:	53                   	push   %rbx
    62b3:	48 83 ec 18          	sub    $0x18,%rsp
    62b7:	ff 15 93 8b 24 00    	callq  *0x248b93(%rip)        # 24ee50 <_GLOBAL_OFFSET_TABLE_+0x570>
    62bd:	48 89 c3             	mov    %rax,%rbx
    62c0:	49 89 d6             	mov    %rdx,%r14
    62c3:	48 89 44 24 08       	mov    %rax,0x8(%rsp)
    62c8:	48 89 54 24 10       	mov    %rdx,0x10(%rsp)
    62cd:	48 8d 05 94 8e 24 00 	lea    0x248e94(%rip),%rax        # 24f168 <_ZN3std9panicking11panic_count18GLOBAL_PANIC_COUNT17h576a7e5917fd1ccdE>
    62d4:	f0 48 83 28 01       	lock subq $0x1,(%rax)
    62d9:	66 66 66 64 48 8b 04 	data16 data16 data16 mov %fs:0x0,%rax
    62e0:	25 00 00 00 00 
    62e5:	83 b8 e0 ff ff ff 01 	cmpl   $0x1,-0x20(%rax)
    62ec:	75 09                	jne    62f7 <_ZN3std9panicking3try7cleanup17h7307b5d29b19ee3bE+0x47>
    62ee:	48 8d 80 e8 ff ff ff 	lea    -0x18(%rax),%rax
    62f5:	eb 0a                	jmp    6301 <_ZN3std9panicking3try7cleanup17h7307b5d29b19ee3bE+0x51>
    62f7:	e8 84 e6 00 00       	callq  14980 <_ZN3std6thread5local4fast12Key$LT$T$GT$14try_initialize17h4dc6411d7a92351bE>
    62fc:	48 85 c0             	test   %rax,%rax
    62ff:	74 12                	je     6313 <_ZN3std9panicking3try7cleanup17h7307b5d29b19ee3bE+0x63>
    6301:	48 83 00 ff          	addq   $0xffffffffffffffff,(%rax)
    6305:	48 89 d8             	mov    %rbx,%rax
    6308:	4c 89 f2             	mov    %r14,%rdx
    630b:	48 83 c4 18          	add    $0x18,%rsp
    630f:	5b                   	pop    %rbx
    6310:	41 5e                	pop    %r14
    6312:	c3                   	retq   
    6313:	48 8d 3d 6a 9c 03 00 	lea    0x39c6a(%rip),%rdi        # 3ff84 <str.0+0x44>
    631a:	48 8d 0d 6f 66 24 00 	lea    0x24666f(%rip),%rcx        # 24c990 <anon.301c5d4cbd7f8c5b61df91e2cad8fefb.0.llvm.13767110465242657722+0xb58>
    6321:	4c 8d 05 10 5f 24 00 	lea    0x245f10(%rip),%r8        # 24c238 <anon.301c5d4cbd7f8c5b61df91e2cad8fefb.0.llvm.13767110465242657722+0x400>
    6328:	48 89 e2             	mov    %rsp,%rdx
    632b:	be 46 00 00 00       	mov    $0x46,%esi
    6330:	ff 15 8a 8a 24 00    	callq  *0x248a8a(%rip)        # 24edc0 <_GLOBAL_OFFSET_TABLE_+0x4e0>
    6336:	0f 0b                	ud2    
    6338:	48 89 c3             	mov    %rax,%rbx
    633b:	48 8d 7c 24 08       	lea    0x8(%rsp),%rdi
    6340:	e8 3b 3e 00 00       	callq  a180 <_ZN4core3ptr131drop_in_place$LT$alloc..boxed..Box$LT$dyn$u20$core..ops..function..FnOnce$LT$$LP$$RP$$GT$$u2b$Output$u20$$u3d$$u20$$LP$$RP$$GT$$GT$17h7f319c3b79ce0d46E>
    6345:	48 89 df             	mov    %rbx,%rdi
    6348:	e8 63 f7 ff ff       	callq  5ab0 <_Unwind_Resume@plt>
    634d:	0f 0b                	ud2    
    634f:	ff 15 13 8c 24 00    	callq  *0x248c13(%rip)        # 24ef68 <_GLOBAL_OFFSET_TABLE_+0x688>
    6355:	0f 0b                	ud2    
    6357:	66 0f 1f 84 00 00 00 	nopw   0x0(%rax,%rax,1)
    635e:	00 00 

0000000000006360 <_ZN4core5slice4sort22partial_insertion_sort17haf0115a68ff72b41E>:
    6360:	55                   	push   %rbp
    6361:	41 57                	push   %r15
    6363:	41 56                	push   %r14
    6365:	41 55                	push   %r13
    6367:	41 54                	push   %r12
    6369:	53                   	push   %rbx
    636a:	48 83 ec 28          	sub    $0x28,%rsp
    636e:	48 83 fe 32          	cmp    $0x32,%rsi
    6372:	73 62                	jae    63d6 <_ZN4core5slice4sort22partial_insertion_sort17haf0115a68ff72b41E+0x76>
    6374:	b8 01 00 00 00       	mov    $0x1,%eax
    6379:	48 83 fe 01          	cmp    $0x1,%rsi
    637d:	0f 86 8a 02 00 00    	jbe    660d <_ZN4core5slice4sort22partial_insertion_sort17haf0115a68ff72b41E+0x2ad>
    6383:	48 8b 6f 18          	mov    0x18(%rdi),%rbp
    6387:	48 3b 2f             	cmp    (%rdi),%rbp
    638a:	0f 82 7d 02 00 00    	jb     660d <_ZN4core5slice4sort22partial_insertion_sort17haf0115a68ff72b41E+0x2ad>
    6390:	ba 02 00 00 00       	mov    $0x2,%edx
    6395:	48 29 f2             	sub    %rsi,%rdx
    6398:	48 83 c7 30          	add    $0x30,%rdi
    639c:	b8 01 00 00 00       	mov    $0x1,%eax
    63a1:	66 2e 0f 1f 84 00 00 	nopw   %cs:0x0(%rax,%rax,1)
    63a8:	00 00 00 
    63ab:	0f 1f 44 00 00       	nopl   0x0(%rax,%rax,1)
    63b0:	48 8d 0c 02          	lea    (%rdx,%rax,1),%rcx
    63b4:	48 83 f9 01          	cmp    $0x1,%rcx
    63b8:	0f 84 4c 02 00 00    	je     660a <_ZN4core5slice4sort22partial_insertion_sort17haf0115a68ff72b41E+0x2aa>
    63be:	48 8b 0f             	mov    (%rdi),%rcx
    63c1:	48 83 c7 18          	add    $0x18,%rdi
    63c5:	48 83 c0 01          	add    $0x1,%rax
    63c9:	48 39 e9             	cmp    %rbp,%rcx
    63cc:	48 89 cd             	mov    %rcx,%rbp
    63cf:	73 df                	jae    63b0 <_ZN4core5slice4sort22partial_insertion_sort17haf0115a68ff72b41E+0x50>
    63d1:	e9 37 02 00 00       	jmpq   660d <_ZN4core5slice4sort22partial_insertion_sort17haf0115a68ff72b41E+0x2ad>
    63d6:	4c 8d 7e ff          	lea    -0x1(%rsi),%r15
    63da:	4c 8d 4f b8          	lea    -0x48(%rdi),%r9
    63de:	48 8d 47 48          	lea    0x48(%rdi),%rax
    63e2:	48 89 44 24 20       	mov    %rax,0x20(%rsp)
    63e7:	41 bb 03 00 00 00    	mov    $0x3,%r11d
    63ed:	49 29 f3             	sub    %rsi,%r11
    63f0:	b9 01 00 00 00       	mov    $0x1,%ecx
    63f5:	45 31 f6             	xor    %r14d,%r14d
    63f8:	eb 2a                	jmp    6424 <_ZN4core5slice4sort22partial_insertion_sort17haf0115a68ff72b41E+0xc4>
    63fa:	48 89 d5             	mov    %rdx,%rbp
    63fd:	0f 1f 00             	nopl   (%rax)
    6400:	48 8d 14 6d 00 00 00 	lea    0x0(,%rbp,2),%rdx
    6407:	00 
    6408:	48 01 ea             	add    %rbp,%rdx
    640b:	4d 89 44 d5 00       	mov    %r8,0x0(%r13,%rdx,8)
    6410:	0f 28 04 24          	movaps (%rsp),%xmm0
    6414:	41 0f 11 44 d5 08    	movups %xmm0,0x8(%r13,%rdx,8)
    641a:	49 83 fe 05          	cmp    $0x5,%r14
    641e:	0f 84 ef 01 00 00    	je     6613 <_ZN4core5slice4sort22partial_insertion_sort17haf0115a68ff72b41E+0x2b3>
    6424:	48 39 f1             	cmp    %rsi,%rcx
    6427:	73 47                	jae    6470 <_ZN4core5slice4sort22partial_insertion_sort17haf0115a68ff72b41E+0x110>
    6429:	48 8d 04 49          	lea    (%rcx,%rcx,2),%rax
    642d:	48 8b 2c c7          	mov    (%rdi,%rax,8),%rbp
    6431:	b2 01                	mov    $0x1,%dl
    6433:	48 3b 6c c7 e8       	cmp    -0x18(%rdi,%rax,8),%rbp
    6438:	72 38                	jb     6472 <_ZN4core5slice4sort22partial_insertion_sort17haf0115a68ff72b41E+0x112>
    643a:	48 8d 04 c7          	lea    (%rdi,%rax,8),%rax
    643e:	66 90                	xchg   %ax,%ax
    6440:	49 39 cf             	cmp    %rcx,%r15
    6443:	0f 84 bd 01 00 00    	je     6606 <_ZN4core5slice4sort22partial_insertion_sort17haf0115a68ff72b41E+0x2a6>
    6449:	48 8b 50 18          	mov    0x18(%rax),%rdx
    644d:	48 8d 68 18          	lea    0x18(%rax),%rbp
    6451:	48 83 c1 01          	add    $0x1,%rcx
    6455:	48 3b 10             	cmp    (%rax),%rdx
    6458:	48 89 e8             	mov    %rbp,%rax
    645b:	73 e3                	jae    6440 <_ZN4core5slice4sort22partial_insertion_sort17haf0115a68ff72b41E+0xe0>
    645d:	48 39 f1             	cmp    %rsi,%rcx
    6460:	0f 92 c2             	setb   %dl
    6463:	eb 0d                	jmp    6472 <_ZN4core5slice4sort22partial_insertion_sort17haf0115a68ff72b41E+0x112>
    6465:	66 2e 0f 1f 84 00 00 	nopw   %cs:0x0(%rax,%rax,1)
    646c:	00 00 00 
    646f:	90                   	nop
    6470:	31 d2                	xor    %edx,%edx
    6472:	48 39 f1             	cmp    %rsi,%rcx
    6475:	0f 94 c0             	sete   %al
    6478:	0f 84 88 01 00 00    	je     6606 <_ZN4core5slice4sort22partial_insertion_sort17haf0115a68ff72b41E+0x2a6>
    647e:	4c 8d 41 ff          	lea    -0x1(%rcx),%r8
    6482:	49 39 f0             	cmp    %rsi,%r8
    6485:	0f 83 97 01 00 00    	jae    6622 <_ZN4core5slice4sort22partial_insertion_sort17haf0115a68ff72b41E+0x2c2>
    648b:	84 d2                	test   %dl,%dl
    648d:	0f 84 a1 01 00 00    	je     6634 <_ZN4core5slice4sort22partial_insertion_sort17haf0115a68ff72b41E+0x2d4>
    6493:	4b 8d 14 40          	lea    (%r8,%r8,2),%rdx
    6497:	4c 8d 24 49          	lea    (%rcx,%rcx,2),%r12
    649b:	48 8b 6c d7 10       	mov    0x10(%rdi,%rdx,8),%rbp
    64a0:	48 89 6c 24 10       	mov    %rbp,0x10(%rsp)
    64a5:	0f 10 04 d7          	movups (%rdi,%rdx,8),%xmm0
    64a9:	0f 29 04 24          	movaps %xmm0,(%rsp)
    64ad:	4a 8b 6c e7 10       	mov    0x10(%rdi,%r12,8),%rbp
    64b2:	48 89 6c d7 10       	mov    %rbp,0x10(%rdi,%rdx,8)
    64b7:	42 0f 10 04 e7       	movups (%rdi,%r12,8),%xmm0
    64bc:	0f 11 04 d7          	movups %xmm0,(%rdi,%rdx,8)
    64c0:	48 8b 6c 24 10       	mov    0x10(%rsp),%rbp
    64c5:	4a 89 6c e7 10       	mov    %rbp,0x10(%rdi,%r12,8)
    64ca:	0f 28 04 24          	movaps (%rsp),%xmm0
    64ce:	42 0f 11 04 e7       	movups %xmm0,(%rdi,%r12,8)
    64d3:	48 83 f9 02          	cmp    $0x2,%rcx
    64d7:	72 7b                	jb     6554 <_ZN4core5slice4sort22partial_insertion_sort17haf0115a68ff72b41E+0x1f4>
    64d9:	48 8d 59 fe          	lea    -0x2(%rcx),%rbx
    64dd:	4c 8b 04 d7          	mov    (%rdi,%rdx,8),%r8
    64e1:	48 8d 2c 5b          	lea    (%rbx,%rbx,2),%rbp
    64e5:	4c 3b 04 ef          	cmp    (%rdi,%rbp,8),%r8
    64e9:	73 69                	jae    6554 <_ZN4core5slice4sort22partial_insertion_sort17haf0115a68ff72b41E+0x1f4>
    64eb:	4c 8d 2c d7          	lea    (%rdi,%rdx,8),%r13
    64ef:	0f 10 44 d7 08       	movups 0x8(%rdi,%rdx,8),%xmm0
    64f4:	0f 29 04 24          	movaps %xmm0,(%rsp)
    64f8:	48 8b 54 ef 10       	mov    0x10(%rdi,%rbp,8),%rdx
    64fd:	49 89 55 10          	mov    %rdx,0x10(%r13)
    6501:	0f 10 04 ef          	movups (%rdi,%rbp,8),%xmm0
    6505:	41 0f 11 45 00       	movups %xmm0,0x0(%r13)
    650a:	48 85 db             	test   %rbx,%rbx
    650d:	74 32                	je     6541 <_ZN4core5slice4sort22partial_insertion_sort17haf0115a68ff72b41E+0x1e1>
    650f:	4b 8d 14 e1          	lea    (%r9,%r12,8),%rdx
    6513:	66 2e 0f 1f 84 00 00 	nopw   %cs:0x0(%rax,%rax,1)
    651a:	00 00 00 
    651d:	0f 1f 00             	nopl   (%rax)
    6520:	4c 3b 02             	cmp    (%rdx),%r8
    6523:	73 1e                	jae    6543 <_ZN4core5slice4sort22partial_insertion_sort17haf0115a68ff72b41E+0x1e3>
    6525:	48 83 c3 ff          	add    $0xffffffffffffffff,%rbx
    6529:	48 8b 6a 10          	mov    0x10(%rdx),%rbp
    652d:	48 89 6a 28          	mov    %rbp,0x28(%rdx)
    6531:	0f 10 02             	movups (%rdx),%xmm0
    6534:	0f 11 42 18          	movups %xmm0,0x18(%rdx)
    6538:	48 83 c2 e8          	add    $0xffffffffffffffe8,%rdx
    653c:	48 85 db             	test   %rbx,%rbx
    653f:	75 df                	jne    6520 <_ZN4core5slice4sort22partial_insertion_sort17haf0115a68ff72b41E+0x1c0>
    6541:	31 db                	xor    %ebx,%ebx
    6543:	48 8d 14 5b          	lea    (%rbx,%rbx,2),%rdx
    6547:	4c 89 04 d7          	mov    %r8,(%rdi,%rdx,8)
    654b:	0f 28 04 24          	movaps (%rsp),%xmm0
    654f:	0f 11 44 d7 08       	movups %xmm0,0x8(%rdi,%rdx,8)
    6554:	49 83 c6 01          	add    $0x1,%r14
    6558:	48 89 f2             	mov    %rsi,%rdx
    655b:	48 29 ca             	sub    %rcx,%rdx
    655e:	48 83 fa 02          	cmp    $0x2,%rdx
    6562:	0f 82 b2 fe ff ff    	jb     641a <_ZN4core5slice4sort22partial_insertion_sort17haf0115a68ff72b41E+0xba>
    6568:	4e 8d 2c e7          	lea    (%rdi,%r12,8),%r13
    656c:	4d 8b 45 00          	mov    0x0(%r13),%r8
    6570:	4d 39 45 18          	cmp    %r8,0x18(%r13)
    6574:	0f 83 a0 fe ff ff    	jae    641a <_ZN4core5slice4sort22partial_insertion_sort17haf0115a68ff72b41E+0xba>
    657a:	42 0f 10 44 e7 08    	movups 0x8(%rdi,%r12,8),%xmm0
    6580:	0f 29 04 24          	movaps %xmm0,(%rsp)
    6584:	49 8b 5d 28          	mov    0x28(%r13),%rbx
    6588:	49 89 5d 10          	mov    %rbx,0x10(%r13)
    658c:	41 0f 10 45 18       	movups 0x18(%r13),%xmm0
    6591:	41 0f 11 45 00       	movups %xmm0,0x0(%r13)
    6596:	bd 01 00 00 00       	mov    $0x1,%ebp
    659b:	48 83 fa 03          	cmp    $0x3,%rdx
    659f:	0f 82 5b fe ff ff    	jb     6400 <_ZN4core5slice4sort22partial_insertion_sort17haf0115a68ff72b41E+0xa0>
    65a5:	4d 39 45 30          	cmp    %r8,0x30(%r13)
    65a9:	0f 83 51 fe ff ff    	jae    6400 <_ZN4core5slice4sort22partial_insertion_sort17haf0115a68ff72b41E+0xa0>
    65af:	48 8b 54 24 20       	mov    0x20(%rsp),%rdx
    65b4:	4a 8d 1c e2          	lea    (%rdx,%r12,8),%rbx
    65b8:	4d 8d 24 0b          	lea    (%r11,%rcx,1),%r12
    65bc:	ba 02 00 00 00       	mov    $0x2,%edx
    65c1:	66 2e 0f 1f 84 00 00 	nopw   %cs:0x0(%rax,%rax,1)
    65c8:	00 00 00 
    65cb:	0f 1f 44 00 00       	nopl   0x0(%rax,%rax,1)
    65d0:	4d 8d 14 14          	lea    (%r12,%rdx,1),%r10
    65d4:	48 8b 6b f8          	mov    -0x8(%rbx),%rbp
    65d8:	48 89 6b e0          	mov    %rbp,-0x20(%rbx)
    65dc:	0f 10 43 e8          	movups -0x18(%rbx),%xmm0
    65e0:	0f 11 43 d0          	movups %xmm0,-0x30(%rbx)
    65e4:	49 83 fa 02          	cmp    $0x2,%r10
    65e8:	0f 84 0c fe ff ff    	je     63fa <_ZN4core5slice4sort22partial_insertion_sort17haf0115a68ff72b41E+0x9a>
    65ee:	4c 8d 53 18          	lea    0x18(%rbx),%r10
    65f2:	48 89 d5             	mov    %rdx,%rbp
    65f5:	48 83 c2 01          	add    $0x1,%rdx
    65f9:	4c 39 03             	cmp    %r8,(%rbx)
    65fc:	4c 89 d3             	mov    %r10,%rbx
    65ff:	72 cf                	jb     65d0 <_ZN4core5slice4sort22partial_insertion_sort17haf0115a68ff72b41E+0x270>
    6601:	e9 fa fd ff ff       	jmpq   6400 <_ZN4core5slice4sort22partial_insertion_sort17haf0115a68ff72b41E+0xa0>
    6606:	b0 01                	mov    $0x1,%al
    6608:	eb 09                	jmp    6613 <_ZN4core5slice4sort22partial_insertion_sort17haf0115a68ff72b41E+0x2b3>
    660a:	48 89 f0             	mov    %rsi,%rax
    660d:	48 39 f0             	cmp    %rsi,%rax
    6610:	0f 94 c0             	sete   %al
    6613:	48 83 c4 28          	add    $0x28,%rsp
    6617:	5b                   	pop    %rbx
    6618:	41 5c                	pop    %r12
    661a:	41 5d                	pop    %r13
    661c:	41 5e                	pop    %r14
    661e:	41 5f                	pop    %r15
    6620:	5d                   	pop    %rbp
    6621:	c3                   	retq   
    6622:	48 8d 15 ff 68 24 00 	lea    0x2468ff(%rip),%rdx        # 24cf28 <anon.301c5d4cbd7f8c5b61df91e2cad8fefb.0.llvm.13767110465242657722+0x10f0>
    6629:	4c 89 c7             	mov    %r8,%rdi
    662c:	ff 15 36 88 24 00    	callq  *0x248836(%rip)        # 24ee68 <_GLOBAL_OFFSET_TABLE_+0x588>
    6632:	0f 0b                	ud2    
    6634:	48 8d 15 ed 68 24 00 	lea    0x2468ed(%rip),%rdx        # 24cf28 <anon.301c5d4cbd7f8c5b61df91e2cad8fefb.0.llvm.13767110465242657722+0x10f0>
    663b:	48 89 cf             	mov    %rcx,%rdi
    663e:	ff 15 24 88 24 00    	callq  *0x248824(%rip)        # 24ee68 <_GLOBAL_OFFSET_TABLE_+0x588>
    6644:	0f 0b                	ud2    
    6646:	66 2e 0f 1f 84 00 00 	nopw   %cs:0x0(%rax,%rax,1)
    664d:	00 00 00 

0000000000006650 <_ZN4core5slice4sort8heapsort17h78f2b2020089d41dE>:
    6650:	48 83 ec 18          	sub    $0x18,%rsp
    6654:	48 83 fe 02          	cmp    $0x2,%rsi
    6658:	0f 82 ff 01 00 00    	jb     685d <_ZN4core5slice4sort8heapsort17h78f2b2020089d41dE+0x20d>
    665e:	49 89 f1             	mov    %rsi,%r9
    6661:	49 d1 e9             	shr    %r9
    6664:	eb 13                	jmp    6679 <_ZN4core5slice4sort8heapsort17h78f2b2020089d41dE+0x29>
    6666:	66 2e 0f 1f 84 00 00 	nopw   %cs:0x0(%rax,%rax,1)
    666d:	00 00 00 
    6670:	4d 85 c9             	test   %r9,%r9
    6673:	0f 84 bc 00 00 00    	je     6735 <_ZN4core5slice4sort8heapsort17h78f2b2020089d41dE+0xe5>
    6679:	49 83 c1 ff          	add    $0xffffffffffffffff,%r9
    667d:	4c 89 c9             	mov    %r9,%rcx
    6680:	4c 8d 04 09          	lea    (%rcx,%rcx,1),%r8
    6684:	49 83 c0 01          	add    $0x1,%r8
    6688:	48 8d 04 09          	lea    (%rcx,%rcx,1),%rax
    668c:	48 83 c0 02          	add    $0x2,%rax
    6690:	48 39 f0             	cmp    %rsi,%rax
    6693:	73 2c                	jae    66c1 <_ZN4core5slice4sort8heapsort17h78f2b2020089d41dE+0x71>
    6695:	66 2e 0f 1f 84 00 00 	nopw   %cs:0x0(%rax,%rax,1)
    669c:	00 00 00 
    669f:	90                   	nop
    66a0:	49 39 f0             	cmp    %rsi,%r8
    66a3:	0f 83 cb 01 00 00    	jae    6874 <_ZN4core5slice4sort8heapsort17h78f2b2020089d41dE+0x224>
    66a9:	4b 8d 14 40          	lea    (%r8,%r8,2),%rdx
    66ad:	4c 8b 14 d7          	mov    (%rdi,%rdx,8),%r10
    66b1:	48 8d 14 40          	lea    (%rax,%rax,2),%rdx
    66b5:	4c 3b 14 d7          	cmp    (%rdi,%rdx,8),%r10
    66b9:	72 03                	jb     66be <_ZN4core5slice4sort8heapsort17h78f2b2020089d41dE+0x6e>
    66bb:	4c 89 c0             	mov    %r8,%rax
    66be:	49 89 c0             	mov    %rax,%r8
    66c1:	49 39 f0             	cmp    %rsi,%r8
    66c4:	73 aa                	jae    6670 <_ZN4core5slice4sort8heapsort17h78f2b2020089d41dE+0x20>
    66c6:	48 39 f1             	cmp    %rsi,%rcx
    66c9:	0f 83 93 01 00 00    	jae    6862 <_ZN4core5slice4sort8heapsort17h78f2b2020089d41dE+0x212>
    66cf:	48 8d 04 49          	lea    (%rcx,%rcx,2),%rax
    66d3:	4b 8d 0c 40          	lea    (%r8,%r8,2),%rcx
    66d7:	48 8b 14 c7          	mov    (%rdi,%rax,8),%rdx
    66db:	48 3b 14 cf          	cmp    (%rdi,%rcx,8),%rdx
    66df:	73 8f                	jae    6670 <_ZN4core5slice4sort8heapsort17h78f2b2020089d41dE+0x20>
    66e1:	48 8d 04 c7          	lea    (%rdi,%rax,8),%rax
    66e5:	48 8d 0c cf          	lea    (%rdi,%rcx,8),%rcx
    66e9:	48 8b 50 10          	mov    0x10(%rax),%rdx
    66ed:	48 89 54 24 10       	mov    %rdx,0x10(%rsp)
    66f2:	0f 10 00             	movups (%rax),%xmm0
    66f5:	0f 29 04 24          	movaps %xmm0,(%rsp)
    66f9:	48 8b 51 10          	mov    0x10(%rcx),%rdx
    66fd:	0f 10 01             	movups (%rcx),%xmm0
    6700:	0f 11 00             	movups %xmm0,(%rax)
    6703:	48 89 50 10          	mov    %rdx,0x10(%rax)
    6707:	48 8b 44 24 10       	mov    0x10(%rsp),%rax
    670c:	48 89 41 10          	mov    %rax,0x10(%rcx)
    6710:	0f 28 04 24          	movaps (%rsp),%xmm0
    6714:	0f 11 01             	movups %xmm0,(%rcx)
    6717:	4c 89 c1             	mov    %r8,%rcx
    671a:	4c 8d 04 09          	lea    (%rcx,%rcx,1),%r8
    671e:	49 83 c0 01          	add    $0x1,%r8
    6722:	48 8d 04 09          	lea    (%rcx,%rcx,1),%rax
    6726:	48 83 c0 02          	add    $0x2,%rax
    672a:	48 39 f0             	cmp    %rsi,%rax
    672d:	0f 82 6d ff ff ff    	jb     66a0 <_ZN4core5slice4sort8heapsort17h78f2b2020089d41dE+0x50>
    6733:	eb 8c                	jmp    66c1 <_ZN4core5slice4sort8heapsort17h78f2b2020089d41dE+0x71>
    6735:	48 83 fe 02          	cmp    $0x2,%rsi
    6739:	0f 82 1e 01 00 00    	jb     685d <_ZN4core5slice4sort8heapsort17h78f2b2020089d41dE+0x20d>
    673f:	49 89 f0             	mov    %rsi,%r8
    6742:	eb 16                	jmp    675a <_ZN4core5slice4sort8heapsort17h78f2b2020089d41dE+0x10a>
    6744:	66 2e 0f 1f 84 00 00 	nopw   %cs:0x0(%rax,%rax,1)
    674b:	00 00 00 
    674e:	66 90                	xchg   %ax,%ax
    6750:	49 83 f8 01          	cmp    $0x1,%r8
    6754:	0f 86 03 01 00 00    	jbe    685d <_ZN4core5slice4sort8heapsort17h78f2b2020089d41dE+0x20d>
    675a:	49 83 c0 ff          	add    $0xffffffffffffffff,%r8
    675e:	49 39 f0             	cmp    %rsi,%r8
    6761:	0f 83 49 01 00 00    	jae    68b0 <_ZN4core5slice4sort8heapsort17h78f2b2020089d41dE+0x260>
    6767:	4b 8d 04 40          	lea    (%r8,%r8,2),%rax
    676b:	48 8b 4f 10          	mov    0x10(%rdi),%rcx
    676f:	48 89 4c 24 10       	mov    %rcx,0x10(%rsp)
    6774:	0f 10 07             	movups (%rdi),%xmm0
    6777:	0f 29 04 24          	movaps %xmm0,(%rsp)
    677b:	48 8b 4c c7 10       	mov    0x10(%rdi,%rax,8),%rcx
    6780:	0f 10 04 c7          	movups (%rdi,%rax,8),%xmm0
    6784:	0f 11 07             	movups %xmm0,(%rdi)
    6787:	48 89 4f 10          	mov    %rcx,0x10(%rdi)
    678b:	48 8b 4c 24 10       	mov    0x10(%rsp),%rcx
    6790:	48 89 4c c7 10       	mov    %rcx,0x10(%rdi,%rax,8)
    6795:	0f 28 04 24          	movaps (%rsp),%xmm0
    6799:	0f 11 04 c7          	movups %xmm0,(%rdi,%rax,8)
    679d:	31 c9                	xor    %ecx,%ecx
    679f:	4c 8d 0c 09          	lea    (%rcx,%rcx,1),%r9
    67a3:	49 83 c1 01          	add    $0x1,%r9
    67a7:	48 8d 14 09          	lea    (%rcx,%rcx,1),%rdx
    67ab:	48 83 c2 02          	add    $0x2,%rdx
    67af:	4c 39 c2             	cmp    %r8,%rdx
    67b2:	73 2d                	jae    67e1 <_ZN4core5slice4sort8heapsort17h78f2b2020089d41dE+0x191>
    67b4:	66 2e 0f 1f 84 00 00 	nopw   %cs:0x0(%rax,%rax,1)
    67bb:	00 00 00 
    67be:	66 90                	xchg   %ax,%ax
    67c0:	4d 39 c1             	cmp    %r8,%r9
    67c3:	0f 83 d2 00 00 00    	jae    689b <_ZN4core5slice4sort8heapsort17h78f2b2020089d41dE+0x24b>
    67c9:	4b 8d 04 49          	lea    (%r9,%r9,2),%rax
    67cd:	4c 8b 14 c7          	mov    (%rdi,%rax,8),%r10
    67d1:	48 8d 04 52          	lea    (%rdx,%rdx,2),%rax
    67d5:	4c 3b 14 c7          	cmp    (%rdi,%rax,8),%r10
    67d9:	72 03                	jb     67de <_ZN4core5slice4sort8heapsort17h78f2b2020089d41dE+0x18e>
    67db:	4c 89 ca             	mov    %r9,%rdx
    67de:	49 89 d1             	mov    %rdx,%r9
    67e1:	4d 39 c1             	cmp    %r8,%r9
    67e4:	0f 83 66 ff ff ff    	jae    6750 <_ZN4core5slice4sort8heapsort17h78f2b2020089d41dE+0x100>
    67ea:	4c 39 c1             	cmp    %r8,%rcx
    67ed:	0f 83 93 00 00 00    	jae    6886 <_ZN4core5slice4sort8heapsort17h78f2b2020089d41dE+0x236>
    67f3:	48 8d 0c 49          	lea    (%rcx,%rcx,2),%rcx
    67f7:	4b 8d 14 49          	lea    (%r9,%r9,2),%rdx
    67fb:	48 8b 04 cf          	mov    (%rdi,%rcx,8),%rax
    67ff:	48 3b 04 d7          	cmp    (%rdi,%rdx,8),%rax
    6803:	0f 83 47 ff ff ff    	jae    6750 <_ZN4core5slice4sort8heapsort17h78f2b2020089d41dE+0x100>
    6809:	48 8d 04 cf          	lea    (%rdi,%rcx,8),%rax
    680d:	48 8d 0c d7          	lea    (%rdi,%rdx,8),%rcx
    6811:	48 8b 50 10          	mov    0x10(%rax),%rdx
    6815:	48 89 54 24 10       	mov    %rdx,0x10(%rsp)
    681a:	0f 10 00             	movups (%rax),%xmm0
    681d:	0f 29 04 24          	movaps %xmm0,(%rsp)
    6821:	48 8b 51 10          	mov    0x10(%rcx),%rdx
    6825:	0f 10 01             	movups (%rcx),%xmm0
    6828:	0f 11 00             	movups %xmm0,(%rax)
    682b:	48 89 50 10          	mov    %rdx,0x10(%rax)
    682f:	48 8b 44 24 10       	mov    0x10(%rsp),%rax
    6834:	48 89 41 10          	mov    %rax,0x10(%rcx)
    6838:	0f 28 04 24          	movaps (%rsp),%xmm0
    683c:	0f 11 01             	movups %xmm0,(%rcx)
    683f:	4c 89 c9             	mov    %r9,%rcx
    6842:	4c 8d 0c 09          	lea    (%rcx,%rcx,1),%r9
    6846:	49 83 c1 01          	add    $0x1,%r9
    684a:	48 8d 14 09          	lea    (%rcx,%rcx,1),%rdx
    684e:	48 83 c2 02          	add    $0x2,%rdx
    6852:	4c 39 c2             	cmp    %r8,%rdx
    6855:	0f 82 65 ff ff ff    	jb     67c0 <_ZN4core5slice4sort8heapsort17h78f2b2020089d41dE+0x170>
    685b:	eb 84                	jmp    67e1 <_ZN4core5slice4sort8heapsort17h78f2b2020089d41dE+0x191>
    685d:	48 83 c4 18          	add    $0x18,%rsp
    6861:	c3                   	retq   
    6862:	48 8d 15 07 67 24 00 	lea    0x246707(%rip),%rdx        # 24cf70 <anon.301c5d4cbd7f8c5b61df91e2cad8fefb.0.llvm.13767110465242657722+0x1138>
    6869:	48 89 cf             	mov    %rcx,%rdi
    686c:	ff 15 f6 85 24 00    	callq  *0x2485f6(%rip)        # 24ee68 <_GLOBAL_OFFSET_TABLE_+0x588>
    6872:	0f 0b                	ud2    
    6874:	48 8d 15 dd 66 24 00 	lea    0x2466dd(%rip),%rdx        # 24cf58 <anon.301c5d4cbd7f8c5b61df91e2cad8fefb.0.llvm.13767110465242657722+0x1120>
    687b:	4c 89 c7             	mov    %r8,%rdi
    687e:	ff 15 e4 85 24 00    	callq  *0x2485e4(%rip)        # 24ee68 <_GLOBAL_OFFSET_TABLE_+0x588>
    6884:	0f 0b                	ud2    
    6886:	48 8d 15 e3 66 24 00 	lea    0x2466e3(%rip),%rdx        # 24cf70 <anon.301c5d4cbd7f8c5b61df91e2cad8fefb.0.llvm.13767110465242657722+0x1138>
    688d:	48 89 cf             	mov    %rcx,%rdi
    6890:	4c 89 c6             	mov    %r8,%rsi
    6893:	ff 15 cf 85 24 00    	callq  *0x2485cf(%rip)        # 24ee68 <_GLOBAL_OFFSET_TABLE_+0x588>
    6899:	0f 0b                	ud2    
    689b:	48 8d 15 b6 66 24 00 	lea    0x2466b6(%rip),%rdx        # 24cf58 <anon.301c5d4cbd7f8c5b61df91e2cad8fefb.0.llvm.13767110465242657722+0x1120>
    68a2:	4c 89 cf             	mov    %r9,%rdi
    68a5:	4c 89 c6             	mov    %r8,%rsi
    68a8:	ff 15 ba 85 24 00    	callq  *0x2485ba(%rip)        # 24ee68 <_GLOBAL_OFFSET_TABLE_+0x588>
    68ae:	0f 0b                	ud2    
    68b0:	48 8d 15 89 66 24 00 	lea    0x246689(%rip),%rdx        # 24cf40 <anon.301c5d4cbd7f8c5b61df91e2cad8fefb.0.llvm.13767110465242657722+0x1108>
    68b7:	4c 89 c7             	mov    %r8,%rdi
    68ba:	ff 15 a8 85 24 00    	callq  *0x2485a8(%rip)        # 24ee68 <_GLOBAL_OFFSET_TABLE_+0x588>
    68c0:	0f 0b                	ud2    
    68c2:	66 2e 0f 1f 84 00 00 	nopw   %cs:0x0(%rax,%rax,1)
    68c9:	00 00 00 
    68cc:	0f 1f 40 00          	nopl   0x0(%rax)

00000000000068d0 <_ZN4core5slice4sort14break_patterns17h76a5782c148f3491E>:
    68d0:	53                   	push   %rbx
    68d1:	48 83 ec 20          	sub    $0x20,%rsp
    68d5:	48 8d 46 ff          	lea    -0x1(%rsi),%rax
    68d9:	48 0f bd c8          	bsr    %rax,%rcx
    68dd:	83 f1 3f             	xor    $0x3f,%ecx
    68e0:	49 c7 c0 ff ff ff ff 	mov    $0xffffffffffffffff,%r8
    68e7:	49 d3 e8             	shr    %cl,%r8
    68ea:	49 89 f2             	mov    %rsi,%r10
    68ed:	49 d1 ea             	shr    %r10
    68f0:	4d 89 d3             	mov    %r10,%r11
    68f3:	49 83 e3 fe          	and    $0xfffffffffffffffe,%r11
    68f7:	4d 8d 4b ff          	lea    -0x1(%r11),%r9
    68fb:	89 f0                	mov    %esi,%eax
    68fd:	c1 e0 0d             	shl    $0xd,%eax
    6900:	31 f0                	xor    %esi,%eax
    6902:	89 c1                	mov    %eax,%ecx
    6904:	c1 e9 11             	shr    $0x11,%ecx
    6907:	31 c1                	xor    %eax,%ecx
    6909:	89 c8                	mov    %ecx,%eax
    690b:	c1 e0 05             	shl    $0x5,%eax
    690e:	31 c8                	xor    %ecx,%eax
    6910:	89 c1                	mov    %eax,%ecx
    6912:	c1 e1 0d             	shl    $0xd,%ecx
    6915:	31 c1                	xor    %eax,%ecx
    6917:	48 c1 e0 20          	shl    $0x20,%rax
    691b:	89 ca                	mov    %ecx,%edx
    691d:	c1 ea 11             	shr    $0x11,%edx
    6920:	31 ca                	xor    %ecx,%edx
    6922:	89 d3                	mov    %edx,%ebx
    6924:	c1 e3 05             	shl    $0x5,%ebx
    6927:	31 d3                	xor    %edx,%ebx
    6929:	48 01 d8             	add    %rbx,%rax
    692c:	4c 21 c0             	and    %r8,%rax
    692f:	31 d2                	xor    %edx,%edx
    6931:	48 39 f0             	cmp    %rsi,%rax
    6934:	48 0f 43 d6          	cmovae %rsi,%rdx
    6938:	49 39 f1             	cmp    %rsi,%r9
    693b:	0f 83 89 01 00 00    	jae    6aca <_ZN4core5slice4sort14break_patterns17h76a5782c148f3491E+0x1fa>
    6941:	48 29 d0             	sub    %rdx,%rax
    6944:	48 39 f0             	cmp    %rsi,%rax
    6947:	0f 83 63 01 00 00    	jae    6ab0 <_ZN4core5slice4sort14break_patterns17h76a5782c148f3491E+0x1e0>
    694d:	4b 8d 14 49          	lea    (%r9,%r9,2),%rdx
    6951:	48 8d 04 40          	lea    (%rax,%rax,2),%rax
    6955:	48 8b 4c d7 10       	mov    0x10(%rdi,%rdx,8),%rcx
    695a:	48 89 4c 24 10       	mov    %rcx,0x10(%rsp)
    695f:	0f 10 04 d7          	movups (%rdi,%rdx,8),%xmm0
    6963:	0f 29 04 24          	movaps %xmm0,(%rsp)
    6967:	48 8b 4c c7 10       	mov    0x10(%rdi,%rax,8),%rcx
    696c:	0f 10 04 c7          	movups (%rdi,%rax,8),%xmm0
    6970:	0f 11 04 d7          	movups %xmm0,(%rdi,%rdx,8)
    6974:	48 89 4c d7 10       	mov    %rcx,0x10(%rdi,%rdx,8)
    6979:	48 8b 4c 24 10       	mov    0x10(%rsp),%rcx
    697e:	48 89 4c c7 10       	mov    %rcx,0x10(%rdi,%rax,8)
    6983:	0f 28 04 24          	movaps (%rsp),%xmm0
    6987:	0f 11 04 c7          	movups %xmm0,(%rdi,%rax,8)
    698b:	89 d8                	mov    %ebx,%eax
    698d:	c1 e0 0d             	shl    $0xd,%eax
    6990:	31 d8                	xor    %ebx,%eax
    6992:	89 c1                	mov    %eax,%ecx
    6994:	c1 e9 11             	shr    $0x11,%ecx
    6997:	31 c1                	xor    %eax,%ecx
    6999:	89 c8                	mov    %ecx,%eax
    699b:	c1 e0 05             	shl    $0x5,%eax
    699e:	31 c8                	xor    %ecx,%eax
    69a0:	89 c1                	mov    %eax,%ecx
    69a2:	c1 e1 0d             	shl    $0xd,%ecx
    69a5:	31 c1                	xor    %eax,%ecx
    69a7:	48 c1 e0 20          	shl    $0x20,%rax
    69ab:	89 ca                	mov    %ecx,%edx
    69ad:	c1 ea 11             	shr    $0x11,%edx
    69b0:	31 ca                	xor    %ecx,%edx
    69b2:	89 d1                	mov    %edx,%ecx
    69b4:	c1 e1 05             	shl    $0x5,%ecx
    69b7:	31 d1                	xor    %edx,%ecx
    69b9:	48 01 c8             	add    %rcx,%rax
    69bc:	4c 21 c0             	and    %r8,%rax
    69bf:	31 d2                	xor    %edx,%edx
    69c1:	48 39 f0             	cmp    %rsi,%rax
    69c4:	48 0f 43 d6          	cmovae %rsi,%rdx
    69c8:	49 39 f3             	cmp    %rsi,%r11
    69cb:	0f 83 f1 00 00 00    	jae    6ac2 <_ZN4core5slice4sort14break_patterns17h76a5782c148f3491E+0x1f2>
    69d1:	48 29 d0             	sub    %rdx,%rax
    69d4:	48 39 f0             	cmp    %rsi,%rax
    69d7:	0f 83 d3 00 00 00    	jae    6ab0 <_ZN4core5slice4sort14break_patterns17h76a5782c148f3491E+0x1e0>
    69dd:	4b 8d 14 5b          	lea    (%r11,%r11,2),%rdx
    69e1:	48 8d 04 40          	lea    (%rax,%rax,2),%rax
    69e5:	48 8b 5c d7 10       	mov    0x10(%rdi,%rdx,8),%rbx
    69ea:	48 89 5c 24 10       	mov    %rbx,0x10(%rsp)
    69ef:	0f 10 04 d7          	movups (%rdi,%rdx,8),%xmm0
    69f3:	0f 29 04 24          	movaps %xmm0,(%rsp)
    69f7:	48 8b 5c c7 10       	mov    0x10(%rdi,%rax,8),%rbx
    69fc:	0f 10 04 c7          	movups (%rdi,%rax,8),%xmm0
    6a00:	0f 11 04 d7          	movups %xmm0,(%rdi,%rdx,8)
    6a04:	48 89 5c d7 10       	mov    %rbx,0x10(%rdi,%rdx,8)
    6a09:	48 8b 54 24 10       	mov    0x10(%rsp),%rdx
    6a0e:	48 89 54 c7 10       	mov    %rdx,0x10(%rdi,%rax,8)
    6a13:	0f 28 04 24          	movaps (%rsp),%xmm0
    6a17:	0f 11 04 c7          	movups %xmm0,(%rdi,%rax,8)
    6a1b:	89 c8                	mov    %ecx,%eax
    6a1d:	c1 e0 0d             	shl    $0xd,%eax
    6a20:	31 c8                	xor    %ecx,%eax
    6a22:	89 c1                	mov    %eax,%ecx
    6a24:	c1 e9 11             	shr    $0x11,%ecx
    6a27:	31 c1                	xor    %eax,%ecx
    6a29:	89 c8                	mov    %ecx,%eax
    6a2b:	c1 e0 05             	shl    $0x5,%eax
    6a2e:	31 c8                	xor    %ecx,%eax
    6a30:	89 c1                	mov    %eax,%ecx
    6a32:	c1 e1 0d             	shl    $0xd,%ecx
    6a35:	31 c1                	xor    %eax,%ecx
    6a37:	48 89 c2             	mov    %rax,%rdx
    6a3a:	48 c1 e2 20          	shl    $0x20,%rdx
    6a3e:	89 cb                	mov    %ecx,%ebx
    6a40:	c1 eb 11             	shr    $0x11,%ebx
    6a43:	31 cb                	xor    %ecx,%ebx
    6a45:	89 d8                	mov    %ebx,%eax
    6a47:	c1 e0 05             	shl    $0x5,%eax
    6a4a:	31 d8                	xor    %ebx,%eax
    6a4c:	48 09 d0             	or     %rdx,%rax
    6a4f:	4c 21 c0             	and    %r8,%rax
    6a52:	31 c9                	xor    %ecx,%ecx
    6a54:	48 39 f0             	cmp    %rsi,%rax
    6a57:	48 0f 43 ce          	cmovae %rsi,%rcx
    6a5b:	49 83 ca 01          	or     $0x1,%r10
    6a5f:	49 39 f2             	cmp    %rsi,%r10
    6a62:	73 63                	jae    6ac7 <_ZN4core5slice4sort14break_patterns17h76a5782c148f3491E+0x1f7>
    6a64:	48 29 c8             	sub    %rcx,%rax
    6a67:	48 39 f0             	cmp    %rsi,%rax
    6a6a:	73 44                	jae    6ab0 <_ZN4core5slice4sort14break_patterns17h76a5782c148f3491E+0x1e0>
    6a6c:	4b 8d 0c 52          	lea    (%r10,%r10,2),%rcx
    6a70:	48 8d 04 40          	lea    (%rax,%rax,2),%rax
    6a74:	48 8b 54 cf 10       	mov    0x10(%rdi,%rcx,8),%rdx
    6a79:	48 89 54 24 10       	mov    %rdx,0x10(%rsp)
    6a7e:	0f 10 04 cf          	movups (%rdi,%rcx,8),%xmm0
    6a82:	0f 29 04 24          	movaps %xmm0,(%rsp)
    6a86:	48 8b 54 c7 10       	mov    0x10(%rdi,%rax,8),%rdx
    6a8b:	0f 10 04 c7          	movups (%rdi,%rax,8),%xmm0
    6a8f:	0f 11 04 cf          	movups %xmm0,(%rdi,%rcx,8)
    6a93:	48 89 54 cf 10       	mov    %rdx,0x10(%rdi,%rcx,8)
    6a98:	48 8b 4c 24 10       	mov    0x10(%rsp),%rcx
    6a9d:	48 89 4c c7 10       	mov    %rcx,0x10(%rdi,%rax,8)
    6aa2:	0f 28 04 24          	movaps (%rsp),%xmm0
    6aa6:	0f 11 04 c7          	movups %xmm0,(%rdi,%rax,8)
    6aaa:	48 83 c4 20          	add    $0x20,%rsp
    6aae:	5b                   	pop    %rbx
    6aaf:	c3                   	retq   
    6ab0:	48 8d 15 39 65 24 00 	lea    0x246539(%rip),%rdx        # 24cff0 <anon.301c5d4cbd7f8c5b61df91e2cad8fefb.0.llvm.13767110465242657722+0x11b8>
    6ab7:	48 89 c7             	mov    %rax,%rdi
    6aba:	ff 15 a8 83 24 00    	callq  *0x2483a8(%rip)        # 24ee68 <_GLOBAL_OFFSET_TABLE_+0x588>
    6ac0:	0f 0b                	ud2    
    6ac2:	4d 89 d9             	mov    %r11,%r9
    6ac5:	eb 03                	jmp    6aca <_ZN4core5slice4sort14break_patterns17h76a5782c148f3491E+0x1fa>
    6ac7:	4d 89 d1             	mov    %r10,%r9
    6aca:	48 8d 15 1f 65 24 00 	lea    0x24651f(%rip),%rdx        # 24cff0 <anon.301c5d4cbd7f8c5b61df91e2cad8fefb.0.llvm.13767110465242657722+0x11b8>
    6ad1:	4c 89 cf             	mov    %r9,%rdi
    6ad4:	ff 15 8e 83 24 00    	callq  *0x24838e(%rip)        # 24ee68 <_GLOBAL_OFFSET_TABLE_+0x588>
    6ada:	0f 0b                	ud2    
    6adc:	0f 1f 40 00          	nopl   0x0(%rax)

0000000000006ae0 <_ZN5alloc7raw_vec19RawVec$LT$T$C$A$GT$7reserve21do_reserve_and_handle17he12877daed9b19f0E>:
    6ae0:	41 56                	push   %r14
    6ae2:	53                   	push   %rbx
    6ae3:	48 83 ec 38          	sub    $0x38,%rsp
    6ae7:	48 01 d6             	add    %rdx,%rsi
    6aea:	0f 82 81 00 00 00    	jb     6b71 <_ZN5alloc7raw_vec19RawVec$LT$T$C$A$GT$7reserve21do_reserve_and_handle17he12877daed9b19f0E+0x91>
    6af0:	49 89 fe             	mov    %rdi,%r14
    6af3:	48 8b 47 08          	mov    0x8(%rdi),%rax
    6af7:	48 8d 0c 00          	lea    (%rax,%rax,1),%rcx
    6afb:	48 39 f1             	cmp    %rsi,%rcx
    6afe:	48 0f 47 f1          	cmova  %rcx,%rsi
    6b02:	48 83 fe 09          	cmp    $0x9,%rsi
    6b06:	bb 08 00 00 00       	mov    $0x8,%ebx
    6b0b:	48 0f 43 de          	cmovae %rsi,%rbx
    6b0f:	48 85 c0             	test   %rax,%rax
    6b12:	74 18                	je     6b2c <_ZN5alloc7raw_vec19RawVec$LT$T$C$A$GT$7reserve21do_reserve_and_handle17he12877daed9b19f0E+0x4c>
    6b14:	49 8b 0e             	mov    (%r14),%rcx
    6b17:	48 89 4c 24 20       	mov    %rcx,0x20(%rsp)
    6b1c:	48 89 44 24 28       	mov    %rax,0x28(%rsp)
    6b21:	48 c7 44 24 30 01 00 	movq   $0x1,0x30(%rsp)
    6b28:	00 00 
    6b2a:	eb 09                	jmp    6b35 <_ZN5alloc7raw_vec19RawVec$LT$T$C$A$GT$7reserve21do_reserve_and_handle17he12877daed9b19f0E+0x55>
    6b2c:	48 c7 44 24 20 00 00 	movq   $0x0,0x20(%rsp)
    6b33:	00 00 
    6b35:	48 8d 7c 24 08       	lea    0x8(%rsp),%rdi
    6b3a:	48 8d 4c 24 20       	lea    0x20(%rsp),%rcx
    6b3f:	ba 01 00 00 00       	mov    $0x1,%edx
    6b44:	48 89 de             	mov    %rbx,%rsi
    6b47:	e8 34 5b 02 00       	callq  2c680 <_ZN5alloc7raw_vec11finish_grow17h622432a34dd71a55E>
    6b4c:	83 7c 24 08 01       	cmpl   $0x1,0x8(%rsp)
    6b51:	74 14                	je     6b67 <_ZN5alloc7raw_vec19RawVec$LT$T$C$A$GT$7reserve21do_reserve_and_handle17he12877daed9b19f0E+0x87>
    6b53:	48 8b 44 24 10       	mov    0x10(%rsp),%rax
    6b58:	49 89 06             	mov    %rax,(%r14)
    6b5b:	49 89 5e 08          	mov    %rbx,0x8(%r14)
    6b5f:	48 83 c4 38          	add    $0x38,%rsp
    6b63:	5b                   	pop    %rbx
    6b64:	41 5e                	pop    %r14
    6b66:	c3                   	retq   
    6b67:	48 8b 74 24 18       	mov    0x18(%rsp),%rsi
    6b6c:	48 85 f6             	test   %rsi,%rsi
    6b6f:	75 08                	jne    6b79 <_ZN5alloc7raw_vec19RawVec$LT$T$C$A$GT$7reserve21do_reserve_and_handle17he12877daed9b19f0E+0x99>
    6b71:	ff 15 c9 81 24 00    	callq  *0x2481c9(%rip)        # 24ed40 <_GLOBAL_OFFSET_TABLE_+0x460>
    6b77:	0f 0b                	ud2    
    6b79:	48 8b 7c 24 10       	mov    0x10(%rsp),%rdi
    6b7e:	ff 15 6c 82 24 00    	callq  *0x24826c(%rip)        # 24edf0 <_GLOBAL_OFFSET_TABLE_+0x510>
    6b84:	0f 0b                	ud2    
    6b86:	66 2e 0f 1f 84 00 00 	nopw   %cs:0x0(%rax,%rax,1)
    6b8d:	00 00 00 

0000000000006b90 <_ZN4core9panicking13assert_failed17h88bf81f9cbd4be35E>:
    6b90:	48 83 ec 58          	sub    $0x58,%rsp
    6b94:	48 89 7c 24 10       	mov    %rdi,0x10(%rsp)
    6b99:	48 8d 05 20 97 03 00 	lea    0x39720(%rip),%rax        # 402c0 <str.0+0x380>
    6ba0:	48 89 44 24 18       	mov    %rax,0x18(%rsp)
    6ba5:	0f 10 06             	movups (%rsi),%xmm0
    6ba8:	0f 10 4e 10          	movups 0x10(%rsi),%xmm1
    6bac:	0f 10 56 20          	movups 0x20(%rsi),%xmm2
    6bb0:	0f 29 54 24 40       	movaps %xmm2,0x40(%rsp)
    6bb5:	0f 29 4c 24 30       	movaps %xmm1,0x30(%rsp)
    6bba:	0f 29 44 24 20       	movaps %xmm0,0x20(%rsp)
    6bbf:	48 8d 05 4a 68 24 00 	lea    0x24684a(%rip),%rax        # 24d410 <_ZN6object3elf12ELF_NOTE_GNU17h136d06504befa751E+0x10>
    6bc6:	48 89 04 24          	mov    %rax,(%rsp)
    6bca:	48 8d 15 17 69 24 00 	lea    0x246917(%rip),%rdx        # 24d4e8 <_ZN6object3elf12ELF_NOTE_GNU17h136d06504befa751E+0xe8>
    6bd1:	48 8d 74 24 10       	lea    0x10(%rsp),%rsi
    6bd6:	48 8d 4c 24 18       	lea    0x18(%rsp),%rcx
    6bdb:	4c 8d 4c 24 20       	lea    0x20(%rsp),%r9
    6be0:	bf 01 00 00 00       	mov    $0x1,%edi
    6be5:	49 89 d0             	mov    %rdx,%r8
    6be8:	ff 15 e2 7d 24 00    	callq  *0x247de2(%rip)        # 24e9d0 <_GLOBAL_OFFSET_TABLE_+0xf0>
    6bee:	0f 0b                	ud2    

0000000000006bf0 <_ZN5alloc7raw_vec19RawVec$LT$T$C$A$GT$7reserve21do_reserve_and_handle17h8bce27bffbb74668E>:
    6bf0:	41 56                	push   %r14
    6bf2:	53                   	push   %rbx
    6bf3:	48 83 ec 38          	sub    $0x38,%rsp
    6bf7:	48 01 d6             	add    %rdx,%rsi
    6bfa:	0f 82 81 00 00 00    	jb     6c81 <_ZN5alloc7raw_vec19RawVec$LT$T$C$A$GT$7reserve21do_reserve_and_handle17h8bce27bffbb74668E+0x91>
    6c00:	49 89 fe             	mov    %rdi,%r14
    6c03:	48 8b 47 08          	mov    0x8(%rdi),%rax
    6c07:	48 8d 0c 00          	lea    (%rax,%rax,1),%rcx
    6c0b:	48 39 f1             	cmp    %rsi,%rcx
    6c0e:	48 0f 47 f1          	cmova  %rcx,%rsi
    6c12:	48 83 fe 09          	cmp    $0x9,%rsi
    6c16:	bb 08 00 00 00       	mov    $0x8,%ebx
    6c1b:	48 0f 43 de          	cmovae %rsi,%rbx
    6c1f:	48 85 c0             	test   %rax,%rax
    6c22:	74 18                	je     6c3c <_ZN5alloc7raw_vec19RawVec$LT$T$C$A$GT$7reserve21do_reserve_and_handle17h8bce27bffbb74668E+0x4c>
    6c24:	49 8b 0e             	mov    (%r14),%rcx
    6c27:	48 89 4c 24 20       	mov    %rcx,0x20(%rsp)
    6c2c:	48 89 44 24 28       	mov    %rax,0x28(%rsp)
    6c31:	48 c7 44 24 30 01 00 	movq   $0x1,0x30(%rsp)
    6c38:	00 00 
    6c3a:	eb 09                	jmp    6c45 <_ZN5alloc7raw_vec19RawVec$LT$T$C$A$GT$7reserve21do_reserve_and_handle17h8bce27bffbb74668E+0x55>
    6c3c:	48 c7 44 24 20 00 00 	movq   $0x0,0x20(%rsp)
    6c43:	00 00 
    6c45:	48 8d 7c 24 08       	lea    0x8(%rsp),%rdi
    6c4a:	48 8d 4c 24 20       	lea    0x20(%rsp),%rcx
    6c4f:	ba 01 00 00 00       	mov    $0x1,%edx
    6c54:	48 89 de             	mov    %rbx,%rsi
    6c57:	e8 a4 18 03 00       	callq  38500 <_ZN5alloc7raw_vec11finish_grow17h8aa3cc7b2e2078d6E>
    6c5c:	83 7c 24 08 01       	cmpl   $0x1,0x8(%rsp)
    6c61:	74 14                	je     6c77 <_ZN5alloc7raw_vec19RawVec$LT$T$C$A$GT$7reserve21do_reserve_and_handle17h8bce27bffbb74668E+0x87>
    6c63:	48 8b 44 24 10       	mov    0x10(%rsp),%rax
    6c68:	49 89 06             	mov    %rax,(%r14)
    6c6b:	49 89 5e 08          	mov    %rbx,0x8(%r14)
    6c6f:	48 83 c4 38          	add    $0x38,%rsp
    6c73:	5b                   	pop    %rbx
    6c74:	41 5e                	pop    %r14
    6c76:	c3                   	retq   
    6c77:	48 8b 74 24 18       	mov    0x18(%rsp),%rsi
    6c7c:	48 85 f6             	test   %rsi,%rsi
    6c7f:	75 08                	jne    6c89 <_ZN5alloc7raw_vec19RawVec$LT$T$C$A$GT$7reserve21do_reserve_and_handle17h8bce27bffbb74668E+0x99>
    6c81:	ff 15 b9 80 24 00    	callq  *0x2480b9(%rip)        # 24ed40 <_GLOBAL_OFFSET_TABLE_+0x460>
    6c87:	0f 0b                	ud2    
    6c89:	48 8b 7c 24 10       	mov    0x10(%rsp),%rdi
    6c8e:	ff 15 5c 81 24 00    	callq  *0x24815c(%rip)        # 24edf0 <_GLOBAL_OFFSET_TABLE_+0x510>
    6c94:	0f 0b                	ud2    
    6c96:	66 2e 0f 1f 84 00 00 	nopw   %cs:0x0(%rax,%rax,1)
    6c9d:	00 00 00 

0000000000006ca0 <_ZN5alloc5alloc18handle_alloc_error17h18d8b7f5adb63f75E>:
    6ca0:	50                   	push   %rax
    6ca1:	e8 5a 19 03 00       	callq  38600 <_ZN4core10intrinsics17const_eval_select17h330037d3d6c7107aE>
    6ca6:	0f 0b                	ud2    
    6ca8:	0f 1f 84 00 00 00 00 	nopl   0x0(%rax,%rax,1)
    6caf:	00 

0000000000006cb0 <_ZN4core6option13expect_failed17he901cd630c26bac2E>:
    6cb0:	50                   	push   %rax
    6cb1:	e8 5a 23 03 00       	callq  39010 <_ZN4core9panicking9panic_str17h52a778a5d2816908E>
    6cb6:	0f 0b                	ud2    
    6cb8:	0f 1f 84 00 00 00 00 	nopl   0x0(%rax,%rax,1)
    6cbf:	00 

0000000000006cc0 <_ZN4core9panicking5panic17hce24794b1e4ab7a1E>:
    6cc0:	48 83 ec 48          	sub    $0x48,%rsp
    6cc4:	48 89 7c 24 08       	mov    %rdi,0x8(%rsp)
    6cc9:	48 89 74 24 10       	mov    %rsi,0x10(%rsp)
    6cce:	48 8d 44 24 08       	lea    0x8(%rsp),%rax
    6cd3:	48 89 44 24 18       	mov    %rax,0x18(%rsp)
    6cd8:	48 c7 44 24 20 01 00 	movq   $0x1,0x20(%rsp)
    6cdf:	00 00 
    6ce1:	48 c7 44 24 28 00 00 	movq   $0x0,0x28(%rsp)
    6ce8:	00 00 
    6cea:	48 8d 05 ff c2 03 00 	lea    0x3c2ff(%rip),%rax        # 42ff0 <_ZN4core7unicode12unicode_data11white_space17SHORT_OFFSET_RUNS17hc9e06d7efe584129E+0x2a0>
    6cf1:	48 89 44 24 38       	mov    %rax,0x38(%rsp)
    6cf6:	48 c7 44 24 40 00 00 	movq   $0x0,0x40(%rsp)
    6cfd:	00 00 
    6cff:	48 8d 7c 24 18       	lea    0x18(%rsp),%rdi
    6d04:	48 89 d6             	mov    %rdx,%rsi
    6d07:	ff 15 2b 7d 24 00    	callq  *0x247d2b(%rip)        # 24ea38 <_GLOBAL_OFFSET_TABLE_+0x158>
    6d0d:	0f 0b                	ud2    
    6d0f:	90                   	nop

0000000000006d10 <_ZN4core9panicking18panic_bounds_check17h6fef86c9bf9d77faE>:
    6d10:	48 83 ec 68          	sub    $0x68,%rsp
    6d14:	48 89 7c 24 08       	mov    %rdi,0x8(%rsp)
    6d19:	48 89 74 24 10       	mov    %rsi,0x10(%rsp)
    6d1e:	48 8d 44 24 10       	lea    0x10(%rsp),%rax
    6d23:	48 89 44 24 18       	mov    %rax,0x18(%rsp)
    6d28:	48 8d 05 01 69 03 00 	lea    0x36901(%rip),%rax        # 3d630 <_ZN4core3fmt3num3imp52_$LT$impl$u20$core..fmt..Display$u20$for$u20$u64$GT$3fmt17h8a1f1e61295b3fdaE>
    6d2f:	48 89 44 24 20       	mov    %rax,0x20(%rsp)
    6d34:	48 8d 4c 24 08       	lea    0x8(%rsp),%rcx
    6d39:	48 89 4c 24 28       	mov    %rcx,0x28(%rsp)
    6d3e:	48 89 44 24 30       	mov    %rax,0x30(%rsp)
    6d43:	48 8d 05 66 74 24 00 	lea    0x247466(%rip),%rax        # 24e1b0 <_ZN6object3elf12ELF_NOTE_GNU17h136d06504befa751E+0xdb0>
    6d4a:	48 89 44 24 38       	mov    %rax,0x38(%rsp)
    6d4f:	48 c7 44 24 40 02 00 	movq   $0x2,0x40(%rsp)
    6d56:	00 00 
    6d58:	48 c7 44 24 48 00 00 	movq   $0x0,0x48(%rsp)
    6d5f:	00 00 
    6d61:	48 8d 44 24 18       	lea    0x18(%rsp),%rax
    6d66:	48 89 44 24 58       	mov    %rax,0x58(%rsp)
    6d6b:	48 c7 44 24 60 02 00 	movq   $0x2,0x60(%rsp)
    6d72:	00 00 
    6d74:	48 8d 7c 24 38       	lea    0x38(%rsp),%rdi
    6d79:	48 89 d6             	mov    %rdx,%rsi
    6d7c:	ff 15 b6 7c 24 00    	callq  *0x247cb6(%rip)        # 24ea38 <_GLOBAL_OFFSET_TABLE_+0x158>
    6d82:	0f 0b                	ud2    
    6d84:	66 2e 0f 1f 84 00 00 	nopw   %cs:0x0(%rax,%rax,1)
    6d8b:	00 00 00 
    6d8e:	66 90                	xchg   %ax,%ax

0000000000006d90 <_ZN4core9panicking15panic_no_unwind17h076430bc5c397205E>:
    6d90:	48 83 ec 58          	sub    $0x58,%rsp
    6d94:	48 8d 05 35 74 24 00 	lea    0x247435(%rip),%rax        # 24e1d0 <_ZN6object3elf12ELF_NOTE_GNU17h136d06504befa751E+0xdd0>
    6d9b:	48 89 44 24 28       	mov    %rax,0x28(%rsp)
    6da0:	48 c7 44 24 30 01 00 	movq   $0x1,0x30(%rsp)
    6da7:	00 00 
    6da9:	48 c7 44 24 38 00 00 	movq   $0x0,0x38(%rsp)
    6db0:	00 00 
    6db2:	48 8d 05 37 c2 03 00 	lea    0x3c237(%rip),%rax        # 42ff0 <_ZN4core7unicode12unicode_data11white_space17SHORT_OFFSET_RUNS17hc9e06d7efe584129E+0x2a0>
    6db9:	48 89 44 24 48       	mov    %rax,0x48(%rsp)
    6dbe:	48 c7 44 24 50 00 00 	movq   $0x0,0x50(%rsp)
    6dc5:	00 00 
    6dc7:	48 89 04 24          	mov    %rax,(%rsp)
    6dcb:	48 8d 05 8e 73 24 00 	lea    0x24738e(%rip),%rax        # 24e160 <_ZN6object3elf12ELF_NOTE_GNU17h136d06504befa751E+0xd60>
    6dd2:	48 89 44 24 08       	mov    %rax,0x8(%rsp)
    6dd7:	48 8d 44 24 28       	lea    0x28(%rsp),%rax
    6ddc:	48 89 44 24 10       	mov    %rax,0x10(%rsp)
    6de1:	48 8d 05 f8 73 24 00 	lea    0x2473f8(%rip),%rax        # 24e1e0 <_ZN6object3elf12ELF_NOTE_GNU17h136d06504befa751E+0xde0>
    6de8:	48 89 44 24 18       	mov    %rax,0x18(%rsp)
    6ded:	c6 44 24 20 00       	movb   $0x0,0x20(%rsp)
    6df2:	48 89 e7             	mov    %rsp,%rdi
    6df5:	ff 15 7d 7e 24 00    	callq  *0x247e7d(%rip)        # 24ec78 <_GLOBAL_OFFSET_TABLE_+0x398>
    6dfb:	eb 06                	jmp    6e03 <_ZN4core9panicking15panic_no_unwind17h076430bc5c397205E+0x73>
    6dfd:	ff 15 65 81 24 00    	callq  *0x248165(%rip)        # 24ef68 <_GLOBAL_OFFSET_TABLE_+0x688>
    6e03:	0f 0b                	ud2    
    6e05:	66 2e 0f 1f 84 00 00 	nopw   %cs:0x0(%rax,%rax,1)
    6e0c:	00 00 00 
    6e0f:	90                   	nop

0000000000006e10 <_ZN4core9panicking9panic_fmt17h472b827f82d8bfa4E>:
    6e10:	48 83 ec 28          	sub    $0x28,%rsp
    6e14:	48 8d 05 d5 c1 03 00 	lea    0x3c1d5(%rip),%rax        # 42ff0 <_ZN4core7unicode12unicode_data11white_space17SHORT_OFFSET_RUNS17hc9e06d7efe584129E+0x2a0>
    6e1b:	48 89 04 24          	mov    %rax,(%rsp)
    6e1f:	48 8d 05 3a 73 24 00 	lea    0x24733a(%rip),%rax        # 24e160 <_ZN6object3elf12ELF_NOTE_GNU17h136d06504befa751E+0xd60>
    6e26:	48 89 44 24 08       	mov    %rax,0x8(%rsp)
    6e2b:	48 89 7c 24 10       	mov    %rdi,0x10(%rsp)
    6e30:	48 89 74 24 18       	mov    %rsi,0x18(%rsp)
    6e35:	c6 44 24 20 01       	movb   $0x1,0x20(%rsp)
    6e3a:	48 89 e7             	mov    %rsp,%rdi
    6e3d:	ff 15 35 7e 24 00    	callq  *0x247e35(%rip)        # 24ec78 <_GLOBAL_OFFSET_TABLE_+0x398>
    6e43:	0f 0b                	ud2    
    6e45:	66 2e 0f 1f 84 00 00 	nopw   %cs:0x0(%rax,%rax,1)
    6e4c:	00 00 00 
    6e4f:	90                   	nop

0000000000006e50 <_ZN4core6result13unwrap_failed17hbf21b17a1115b760E>:
    6e50:	48 83 ec 78          	sub    $0x78,%rsp
    6e54:	48 89 7c 24 08       	mov    %rdi,0x8(%rsp)
    6e59:	48 89 74 24 10       	mov    %rsi,0x10(%rsp)
    6e5e:	48 89 54 24 18       	mov    %rdx,0x18(%rsp)
    6e63:	48 89 4c 24 20       	mov    %rcx,0x20(%rsp)
    6e68:	48 8d 44 24 08       	lea    0x8(%rsp),%rax
    6e6d:	48 89 44 24 28       	mov    %rax,0x28(%rsp)
    6e72:	48 8d 05 d7 6a 03 00 	lea    0x36ad7(%rip),%rax        # 3d950 <_ZN44_$LT$$RF$T$u20$as$u20$core..fmt..Display$GT$3fmt17h1767058c802c2de0E>
    6e79:	48 89 44 24 30       	mov    %rax,0x30(%rsp)
    6e7e:	48 8d 44 24 18       	lea    0x18(%rsp),%rax
    6e83:	48 89 44 24 38       	mov    %rax,0x38(%rsp)
    6e88:	48 8d 05 a1 6a 03 00 	lea    0x36aa1(%rip),%rax        # 3d930 <_ZN42_$LT$$RF$T$u20$as$u20$core..fmt..Debug$GT$3fmt17he9d1546c353843cdE>
    6e8f:	48 89 44 24 40       	mov    %rax,0x40(%rsp)
    6e94:	48 8d 05 fd 73 24 00 	lea    0x2473fd(%rip),%rax        # 24e298 <_ZN6object3elf12ELF_NOTE_GNU17h136d06504befa751E+0xe98>
    6e9b:	48 89 44 24 48       	mov    %rax,0x48(%rsp)
    6ea0:	48 c7 44 24 50 02 00 	movq   $0x2,0x50(%rsp)
    6ea7:	00 00 
    6ea9:	48 c7 44 24 58 00 00 	movq   $0x0,0x58(%rsp)
    6eb0:	00 00 
    6eb2:	48 8d 44 24 28       	lea    0x28(%rsp),%rax
    6eb7:	48 89 44 24 68       	mov    %rax,0x68(%rsp)
    6ebc:	48 c7 44 24 70 02 00 	movq   $0x2,0x70(%rsp)
    6ec3:	00 00 
    6ec5:	48 8d 7c 24 48       	lea    0x48(%rsp),%rdi
    6eca:	4c 89 c6             	mov    %r8,%rsi
    6ecd:	ff 15 65 7b 24 00    	callq  *0x247b65(%rip)        # 24ea38 <_GLOBAL_OFFSET_TABLE_+0x158>
    6ed3:	0f 0b                	ud2    
    6ed5:	66 2e 0f 1f 84 00 00 	nopw   %cs:0x0(%rax,%rax,1)
    6edc:	00 00 00 
    6edf:	90                   	nop

0000000000006ee0 <_ZN4core5slice5index26slice_start_index_len_fail17h15db826ef8a86c70E>:
    6ee0:	48 83 ec 68          	sub    $0x68,%rsp
    6ee4:	48 89 7c 24 08       	mov    %rdi,0x8(%rsp)
    6ee9:	48 89 74 24 10       	mov    %rsi,0x10(%rsp)
    6eee:	48 8d 44 24 08       	lea    0x8(%rsp),%rax
    6ef3:	48 89 44 24 18       	mov    %rax,0x18(%rsp)
    6ef8:	48 8d 05 31 67 03 00 	lea    0x36731(%rip),%rax        # 3d630 <_ZN4core3fmt3num3imp52_$LT$impl$u20$core..fmt..Display$u20$for$u20$u64$GT$3fmt17h8a1f1e61295b3fdaE>
    6eff:	48 89 44 24 20       	mov    %rax,0x20(%rsp)
    6f04:	48 8d 4c 24 10       	lea    0x10(%rsp),%rcx
    6f09:	48 89 4c 24 28       	mov    %rcx,0x28(%rsp)
    6f0e:	48 89 44 24 30       	mov    %rax,0x30(%rsp)
    6f13:	48 8d 05 ae 74 24 00 	lea    0x2474ae(%rip),%rax        # 24e3c8 <_ZN6object3elf12ELF_NOTE_GNU17h136d06504befa751E+0xfc8>
    6f1a:	48 89 44 24 38       	mov    %rax,0x38(%rsp)
    6f1f:	48 c7 44 24 40 02 00 	movq   $0x2,0x40(%rsp)
    6f26:	00 00 
    6f28:	48 c7 44 24 48 00 00 	movq   $0x0,0x48(%rsp)
    6f2f:	00 00 
    6f31:	48 8d 44 24 18       	lea    0x18(%rsp),%rax
    6f36:	48 89 44 24 58       	mov    %rax,0x58(%rsp)
    6f3b:	48 c7 44 24 60 02 00 	movq   $0x2,0x60(%rsp)
    6f42:	00 00 
    6f44:	48 8d 7c 24 38       	lea    0x38(%rsp),%rdi
    6f49:	48 89 d6             	mov    %rdx,%rsi
    6f4c:	ff 15 e6 7a 24 00    	callq  *0x247ae6(%rip)        # 24ea38 <_GLOBAL_OFFSET_TABLE_+0x158>
    6f52:	0f 0b                	ud2    
    6f54:	66 2e 0f 1f 84 00 00 	nopw   %cs:0x0(%rax,%rax,1)
    6f5b:	00 00 00 
    6f5e:	66 90                	xchg   %ax,%ax

0000000000006f60 <_ZN4core5slice5index24slice_end_index_len_fail17h054d84ef99412e9dE>:
    6f60:	48 83 ec 68          	sub    $0x68,%rsp
    6f64:	48 89 7c 24 08       	mov    %rdi,0x8(%rsp)
    6f69:	48 89 74 24 10       	mov    %rsi,0x10(%rsp)
    6f6e:	48 8d 44 24 08       	lea    0x8(%rsp),%rax
    6f73:	48 89 44 24 18       	mov    %rax,0x18(%rsp)
    6f78:	48 8d 05 b1 66 03 00 	lea    0x366b1(%rip),%rax        # 3d630 <_ZN4core3fmt3num3imp52_$LT$impl$u20$core..fmt..Display$u20$for$u20$u64$GT$3fmt17h8a1f1e61295b3fdaE>
    6f7f:	48 89 44 24 20       	mov    %rax,0x20(%rsp)
    6f84:	48 8d 4c 24 10       	lea    0x10(%rsp),%rcx
    6f89:	48 89 4c 24 28       	mov    %rcx,0x28(%rsp)
    6f8e:	48 89 44 24 30       	mov    %rax,0x30(%rsp)
    6f93:	48 8d 05 4e 74 24 00 	lea    0x24744e(%rip),%rax        # 24e3e8 <_ZN6object3elf12ELF_NOTE_GNU17h136d06504befa751E+0xfe8>
    6f9a:	48 89 44 24 38       	mov    %rax,0x38(%rsp)
    6f9f:	48 c7 44 24 40 02 00 	movq   $0x2,0x40(%rsp)
    6fa6:	00 00 
    6fa8:	48 c7 44 24 48 00 00 	movq   $0x0,0x48(%rsp)
    6faf:	00 00 
    6fb1:	48 8d 44 24 18       	lea    0x18(%rsp),%rax
    6fb6:	48 89 44 24 58       	mov    %rax,0x58(%rsp)
    6fbb:	48 c7 44 24 60 02 00 	movq   $0x2,0x60(%rsp)
    6fc2:	00 00 
    6fc4:	48 8d 7c 24 38       	lea    0x38(%rsp),%rdi
    6fc9:	48 89 d6             	mov    %rdx,%rsi
    6fcc:	ff 15 66 7a 24 00    	callq  *0x247a66(%rip)        # 24ea38 <_GLOBAL_OFFSET_TABLE_+0x158>
    6fd2:	0f 0b                	ud2    
    6fd4:	66 2e 0f 1f 84 00 00 	nopw   %cs:0x0(%rax,%rax,1)
    6fdb:	00 00 00 
    6fde:	66 90                	xchg   %ax,%ax

0000000000006fe0 <_ZN4core5slice5index22slice_index_order_fail17h62da83c99eef85fcE>:
    6fe0:	48 83 ec 68          	sub    $0x68,%rsp
    6fe4:	48 89 7c 24 08       	mov    %rdi,0x8(%rsp)
    6fe9:	48 89 74 24 10       	mov    %rsi,0x10(%rsp)
    6fee:	48 8d 44 24 08       	lea    0x8(%rsp),%rax
    6ff3:	48 89 44 24 18       	mov    %rax,0x18(%rsp)
    6ff8:	48 8d 05 31 66 03 00 	lea    0x36631(%rip),%rax        # 3d630 <_ZN4core3fmt3num3imp52_$LT$impl$u20$core..fmt..Display$u20$for$u20$u64$GT$3fmt17h8a1f1e61295b3fdaE>
    6fff:	48 89 44 24 20       	mov    %rax,0x20(%rsp)
    7004:	48 8d 4c 24 10       	lea    0x10(%rsp),%rcx
    7009:	48 89 4c 24 28       	mov    %rcx,0x28(%rsp)
    700e:	48 89 44 24 30       	mov    %rax,0x30(%rsp)
    7013:	48 8d 05 ee 73 24 00 	lea    0x2473ee(%rip),%rax        # 24e408 <_ZN6object3elf12ELF_NOTE_GNU17h136d06504befa751E+0x1008>
    701a:	48 89 44 24 38       	mov    %rax,0x38(%rsp)
    701f:	48 c7 44 24 40 02 00 	movq   $0x2,0x40(%rsp)
    7026:	00 00 
    7028:	48 c7 44 24 48 00 00 	movq   $0x0,0x48(%rsp)
    702f:	00 00 
    7031:	48 8d 44 24 18       	lea    0x18(%rsp),%rax
    7036:	48 89 44 24 58       	mov    %rax,0x58(%rsp)
    703b:	48 c7 44 24 60 02 00 	movq   $0x2,0x60(%rsp)
    7042:	00 00 
    7044:	48 8d 7c 24 38       	lea    0x38(%rsp),%rdi
    7049:	48 89 d6             	mov    %rdx,%rsi
    704c:	ff 15 e6 79 24 00    	callq  *0x2479e6(%rip)        # 24ea38 <_GLOBAL_OFFSET_TABLE_+0x158>
    7052:	0f 0b                	ud2    
    7054:	66 2e 0f 1f 84 00 00 	nopw   %cs:0x0(%rax,%rax,1)
    705b:	00 00 00 
    705e:	66 90                	xchg   %ax,%ax

0000000000007060 <_ZN4core5slice29_$LT$impl$u20$$u5b$T$u5d$$GT$15copy_from_slice17len_mismatch_fail17h839251258f7a7e0eE>:
    7060:	48 83 ec 68          	sub    $0x68,%rsp
    7064:	48 89 7c 24 08       	mov    %rdi,0x8(%rsp)
    7069:	48 89 74 24 10       	mov    %rsi,0x10(%rsp)
    706e:	48 8d 44 24 10       	lea    0x10(%rsp),%rax
    7073:	48 89 44 24 18       	mov    %rax,0x18(%rsp)
    7078:	48 8d 05 b1 65 03 00 	lea    0x365b1(%rip),%rax        # 3d630 <_ZN4core3fmt3num3imp52_$LT$impl$u20$core..fmt..Display$u20$for$u20$u64$GT$3fmt17h8a1f1e61295b3fdaE>
    707f:	48 89 44 24 20       	mov    %rax,0x20(%rsp)
    7084:	48 8d 4c 24 08       	lea    0x8(%rsp),%rcx
    7089:	48 89 4c 24 28       	mov    %rcx,0x28(%rsp)
    708e:	48 89 44 24 30       	mov    %rax,0x30(%rsp)
    7093:	48 8d 05 8e 73 24 00 	lea    0x24738e(%rip),%rax        # 24e428 <_ZN6object3elf12ELF_NOTE_GNU17h136d06504befa751E+0x1028>
    709a:	48 89 44 24 38       	mov    %rax,0x38(%rsp)
    709f:	48 c7 44 24 40 03 00 	movq   $0x3,0x40(%rsp)
    70a6:	00 00 
    70a8:	48 c7 44 24 48 00 00 	movq   $0x0,0x48(%rsp)
    70af:	00 00 
    70b1:	48 8d 44 24 18       	lea    0x18(%rsp),%rax
    70b6:	48 89 44 24 58       	mov    %rax,0x58(%rsp)
    70bb:	48 c7 44 24 60 02 00 	movq   $0x2,0x60(%rsp)
    70c2:	00 00 
    70c4:	48 8d 7c 24 38       	lea    0x38(%rsp),%rdi
    70c9:	48 89 d6             	mov    %rdx,%rsi
    70cc:	ff 15 66 79 24 00    	callq  *0x247966(%rip)        # 24ea38 <_GLOBAL_OFFSET_TABLE_+0x158>
    70d2:	0f 0b                	ud2    
    70d4:	66 2e 0f 1f 84 00 00 	nopw   %cs:0x0(%rax,%rax,1)
    70db:	00 00 00 
    70de:	66 90                	xchg   %ax,%ax

00000000000070e0 <_ZN4core3str6traits23str_index_overflow_fail17h3041bf40daedf899E>:
    70e0:	48 83 ec 38          	sub    $0x38,%rsp
    70e4:	48 89 fe             	mov    %rdi,%rsi
    70e7:	48 8d 05 6a 73 24 00 	lea    0x24736a(%rip),%rax        # 24e458 <_ZN6object3elf12ELF_NOTE_GNU17h136d06504befa751E+0x1058>
    70ee:	48 89 44 24 08       	mov    %rax,0x8(%rsp)
    70f3:	48 c7 44 24 10 01 00 	movq   $0x1,0x10(%rsp)
    70fa:	00 00 
    70fc:	48 c7 44 24 18 00 00 	movq   $0x0,0x18(%rsp)
    7103:	00 00 
    7105:	48 8d 05 e4 be 03 00 	lea    0x3bee4(%rip),%rax        # 42ff0 <_ZN4core7unicode12unicode_data11white_space17SHORT_OFFSET_RUNS17hc9e06d7efe584129E+0x2a0>
    710c:	48 89 44 24 28       	mov    %rax,0x28(%rsp)
    7111:	48 c7 44 24 30 00 00 	movq   $0x0,0x30(%rsp)
    7118:	00 00 
    711a:	48 8d 7c 24 08       	lea    0x8(%rsp),%rdi
    711f:	ff 15 13 79 24 00    	callq  *0x247913(%rip)        # 24ea38 <_GLOBAL_OFFSET_TABLE_+0x158>
    7125:	0f 0b                	ud2    
    7127:	66 0f 1f 84 00 00 00 	nopw   0x0(%rax,%rax,1)
    712e:	00 00 

0000000000007130 <_ZN4core3str16slice_error_fail17h5d6a4c2c63b6013aE>:
    7130:	48 81 ec d8 00 00 00 	sub    $0xd8,%rsp
    7137:	48 89 94 24 c0 00 00 	mov    %rdx,0xc0(%rsp)
    713e:	00 
    713f:	48 89 8c 24 c8 00 00 	mov    %rcx,0xc8(%rsp)
    7146:	00 
    7147:	48 81 fe 01 01 00 00 	cmp    $0x101,%rsi
    714e:	72 6b                	jb     71bb <_ZN4core3str16slice_error_fail17h5d6a4c2c63b6013aE+0x8b>
    7150:	b8 00 01 00 00       	mov    $0x100,%eax
    7155:	80 bf 00 01 00 00 bf 	cmpb   $0xbf,0x100(%rdi)
    715c:	7f 21                	jg     717f <_ZN4core3str16slice_error_fail17h5d6a4c2c63b6013aE+0x4f>
    715e:	b8 ff 00 00 00       	mov    $0xff,%eax
    7163:	80 bf ff 00 00 00 bf 	cmpb   $0xbf,0xff(%rdi)
    716a:	7f 13                	jg     717f <_ZN4core3str16slice_error_fail17h5d6a4c2c63b6013aE+0x4f>
    716c:	b8 fe 00 00 00       	mov    $0xfe,%eax
    7171:	80 bf fe 00 00 00 bf 	cmpb   $0xbf,0xfe(%rdi)
    7178:	7f 05                	jg     717f <_ZN4core3str16slice_error_fail17h5d6a4c2c63b6013aE+0x4f>
    717a:	b8 fd 00 00 00       	mov    $0xfd,%eax
    717f:	48 39 f0             	cmp    %rsi,%rax
    7182:	73 31                	jae    71b5 <_ZN4core3str16slice_error_fail17h5d6a4c2c63b6013aE+0x85>
    7184:	48 89 7c 24 10       	mov    %rdi,0x10(%rsp)
    7189:	48 89 44 24 18       	mov    %rax,0x18(%rsp)
    718e:	41 b9 05 00 00 00    	mov    $0x5,%r9d
    7194:	48 8d 05 0a c3 03 00 	lea    0x3c30a(%rip),%rax        # 434a5 <_ZN4core7unicode12unicode_data11white_space17SHORT_OFFSET_RUNS17hc9e06d7efe584129E+0x755>
    719b:	48 89 84 24 a0 00 00 	mov    %rax,0xa0(%rsp)
    71a2:	00 
    71a3:	4c 89 8c 24 a8 00 00 	mov    %r9,0xa8(%rsp)
    71aa:	00 
    71ab:	48 39 f2             	cmp    %rsi,%rdx
    71ae:	76 38                	jbe    71e8 <_ZN4core3str16slice_error_fail17h5d6a4c2c63b6013aE+0xb8>
    71b0:	e9 df 00 00 00       	jmpq   7294 <_ZN4core3str16slice_error_fail17h5d6a4c2c63b6013aE+0x164>
    71b5:	0f 85 b2 01 00 00    	jne    736d <_ZN4core3str16slice_error_fail17h5d6a4c2c63b6013aE+0x23d>
    71bb:	48 89 7c 24 10       	mov    %rdi,0x10(%rsp)
    71c0:	48 89 74 24 18       	mov    %rsi,0x18(%rsp)
    71c5:	48 8d 05 24 be 03 00 	lea    0x3be24(%rip),%rax        # 42ff0 <_ZN4core7unicode12unicode_data11white_space17SHORT_OFFSET_RUNS17hc9e06d7efe584129E+0x2a0>
    71cc:	45 31 c9             	xor    %r9d,%r9d
    71cf:	48 89 84 24 a0 00 00 	mov    %rax,0xa0(%rsp)
    71d6:	00 
    71d7:	4c 89 8c 24 a8 00 00 	mov    %r9,0xa8(%rsp)
    71de:	00 
    71df:	48 39 f2             	cmp    %rsi,%rdx
    71e2:	0f 87 ac 00 00 00    	ja     7294 <_ZN4core3str16slice_error_fail17h5d6a4c2c63b6013aE+0x164>
    71e8:	48 39 f1             	cmp    %rsi,%rcx
    71eb:	0f 87 a3 00 00 00    	ja     7294 <_ZN4core3str16slice_error_fail17h5d6a4c2c63b6013aE+0x164>
    71f1:	48 39 ca             	cmp    %rcx,%rdx
    71f4:	0f 86 2b 01 00 00    	jbe    7325 <_ZN4core3str16slice_error_fail17h5d6a4c2c63b6013aE+0x1f5>
    71fa:	48 8d 84 24 c0 00 00 	lea    0xc0(%rsp),%rax
    7201:	00 
    7202:	48 89 44 24 50       	mov    %rax,0x50(%rsp)
    7207:	48 8d 05 22 64 03 00 	lea    0x36422(%rip),%rax        # 3d630 <_ZN4core3fmt3num3imp52_$LT$impl$u20$core..fmt..Display$u20$for$u20$u64$GT$3fmt17h8a1f1e61295b3fdaE>
    720e:	48 89 44 24 58       	mov    %rax,0x58(%rsp)
    7213:	48 8d 8c 24 c8 00 00 	lea    0xc8(%rsp),%rcx
    721a:	00 
    721b:	48 89 4c 24 60       	mov    %rcx,0x60(%rsp)
    7220:	48 89 44 24 68       	mov    %rax,0x68(%rsp)
    7225:	48 8d 44 24 10       	lea    0x10(%rsp),%rax
    722a:	48 89 44 24 70       	mov    %rax,0x70(%rsp)
    722f:	48 8d 05 1a 67 03 00 	lea    0x3671a(%rip),%rax        # 3d950 <_ZN44_$LT$$RF$T$u20$as$u20$core..fmt..Display$GT$3fmt17h1767058c802c2de0E>
    7236:	48 89 44 24 78       	mov    %rax,0x78(%rsp)
    723b:	48 8d 8c 24 a0 00 00 	lea    0xa0(%rsp),%rcx
    7242:	00 
    7243:	48 89 8c 24 80 00 00 	mov    %rcx,0x80(%rsp)
    724a:	00 
    724b:	48 89 84 24 88 00 00 	mov    %rax,0x88(%rsp)
    7252:	00 
    7253:	48 8d 05 e6 72 24 00 	lea    0x2472e6(%rip),%rax        # 24e540 <_ZN6object3elf12ELF_NOTE_GNU17h136d06504befa751E+0x1140>
    725a:	48 89 44 24 20       	mov    %rax,0x20(%rsp)
    725f:	48 c7 44 24 28 04 00 	movq   $0x4,0x28(%rsp)
    7266:	00 00 
    7268:	48 c7 44 24 30 00 00 	movq   $0x0,0x30(%rsp)
    726f:	00 00 
    7271:	48 8d 44 24 50       	lea    0x50(%rsp),%rax
    7276:	48 89 44 24 40       	mov    %rax,0x40(%rsp)
    727b:	48 c7 44 24 48 04 00 	movq   $0x4,0x48(%rsp)
    7282:	00 00 
    7284:	48 8d 7c 24 20       	lea    0x20(%rsp),%rdi
    7289:	4c 89 c6             	mov    %r8,%rsi
    728c:	ff 15 a6 77 24 00    	callq  *0x2477a6(%rip)        # 24ea38 <_GLOBAL_OFFSET_TABLE_+0x158>
    7292:	0f 0b                	ud2    
    7294:	48 39 f2             	cmp    %rsi,%rdx
    7297:	48 0f 47 ca          	cmova  %rdx,%rcx
    729b:	48 89 8c 24 b0 00 00 	mov    %rcx,0xb0(%rsp)
    72a2:	00 
    72a3:	48 8d 84 24 b0 00 00 	lea    0xb0(%rsp),%rax
    72aa:	00 
    72ab:	48 89 44 24 50       	mov    %rax,0x50(%rsp)
    72b0:	48 8d 05 79 63 03 00 	lea    0x36379(%rip),%rax        # 3d630 <_ZN4core3fmt3num3imp52_$LT$impl$u20$core..fmt..Display$u20$for$u20$u64$GT$3fmt17h8a1f1e61295b3fdaE>
    72b7:	48 89 44 24 58       	mov    %rax,0x58(%rsp)
    72bc:	48 8d 44 24 10       	lea    0x10(%rsp),%rax
    72c1:	48 89 44 24 60       	mov    %rax,0x60(%rsp)
    72c6:	48 8d 05 83 66 03 00 	lea    0x36683(%rip),%rax        # 3d950 <_ZN44_$LT$$RF$T$u20$as$u20$core..fmt..Display$GT$3fmt17h1767058c802c2de0E>
    72cd:	48 89 44 24 68       	mov    %rax,0x68(%rsp)
    72d2:	48 8d 8c 24 a0 00 00 	lea    0xa0(%rsp),%rcx
    72d9:	00 
    72da:	48 89 4c 24 70       	mov    %rcx,0x70(%rsp)
    72df:	48 89 44 24 78       	mov    %rax,0x78(%rsp)
    72e4:	48 8d 05 25 72 24 00 	lea    0x247225(%rip),%rax        # 24e510 <_ZN6object3elf12ELF_NOTE_GNU17h136d06504befa751E+0x1110>
    72eb:	48 89 44 24 20       	mov    %rax,0x20(%rsp)
    72f0:	48 c7 44 24 28 03 00 	movq   $0x3,0x28(%rsp)
    72f7:	00 00 
    72f9:	48 c7 44 24 30 00 00 	movq   $0x0,0x30(%rsp)
    7300:	00 00 
    7302:	48 8d 44 24 50       	lea    0x50(%rsp),%rax
    7307:	48 89 44 24 40       	mov    %rax,0x40(%rsp)
    730c:	48 c7 44 24 48 03 00 	movq   $0x3,0x48(%rsp)
    7313:	00 00 
    7315:	48 8d 7c 24 20       	lea    0x20(%rsp),%rdi
    731a:	4c 89 c6             	mov    %r8,%rsi
    731d:	ff 15 15 77 24 00    	callq  *0x247715(%rip)        # 24ea38 <_GLOBAL_OFFSET_TABLE_+0x158>
    7323:	0f 0b                	ud2    
    7325:	48 85 d2             	test   %rdx,%rdx
    7328:	75 50                	jne    737a <_ZN4core3str16slice_error_fail17h5d6a4c2c63b6013aE+0x24a>
    732a:	48 89 ca             	mov    %rcx,%rdx
    732d:	48 89 94 24 d0 00 00 	mov    %rdx,0xd0(%rsp)
    7334:	00 
    7335:	48 89 f0             	mov    %rsi,%rax
    7338:	48 39 f2             	cmp    %rsi,%rdx
    733b:	0f 83 b0 00 00 00    	jae    73f1 <_ZN4core3str16slice_error_fail17h5d6a4c2c63b6013aE+0x2c1>
    7341:	45 31 d2             	xor    %r10d,%r10d
    7344:	48 89 d0             	mov    %rdx,%rax
    7347:	48 83 e8 03          	sub    $0x3,%rax
    734b:	4c 0f 43 d0          	cmovae %rax,%r10
    734f:	48 8d 42 01          	lea    0x1(%rdx),%rax
    7353:	4c 39 d0             	cmp    %r10,%rax
    7356:	73 2f                	jae    7387 <_ZN4core3str16slice_error_fail17h5d6a4c2c63b6013aE+0x257>
    7358:	48 8d 15 71 72 24 00 	lea    0x247271(%rip),%rdx        # 24e5d0 <_ZN6object3elf12ELF_NOTE_GNU17h136d06504befa751E+0x11d0>
    735f:	4c 89 d7             	mov    %r10,%rdi
    7362:	48 89 c6             	mov    %rax,%rsi
    7365:	ff 15 cd 79 24 00    	callq  *0x2479cd(%rip)        # 24ed38 <_GLOBAL_OFFSET_TABLE_+0x458>
    736b:	0f 0b                	ud2    
    736d:	31 d2                	xor    %edx,%edx
    736f:	48 89 c1             	mov    %rax,%rcx
    7372:	ff 15 80 7b 24 00    	callq  *0x247b80(%rip)        # 24eef8 <_GLOBAL_OFFSET_TABLE_+0x618>
    7378:	0f 0b                	ud2    
    737a:	48 39 f2             	cmp    %rsi,%rdx
    737d:	73 20                	jae    739f <_ZN4core3str16slice_error_fail17h5d6a4c2c63b6013aE+0x26f>
    737f:	80 3c 17 c0          	cmpb   $0xc0,(%rdi,%rdx,1)
    7383:	7d a5                	jge    732a <_ZN4core3str16slice_error_fail17h5d6a4c2c63b6013aE+0x1fa>
    7385:	eb a6                	jmp    732d <_ZN4core3str16slice_error_fail17h5d6a4c2c63b6013aE+0x1fd>
    7387:	74 65                	je     73ee <_ZN4core3str16slice_error_fail17h5d6a4c2c63b6013aE+0x2be>
    7389:	4e 8d 0c 17          	lea    (%rdi,%r10,1),%r9
    738d:	48 01 f8             	add    %rdi,%rax
    7390:	4c 29 c8             	sub    %r9,%rax
    7393:	80 3c 17 bf          	cmpb   $0xbf,(%rdi,%rdx,1)
    7397:	7e 0a                	jle    73a3 <_ZN4core3str16slice_error_fail17h5d6a4c2c63b6013aE+0x273>
    7399:	48 83 c0 ff          	add    $0xffffffffffffffff,%rax
    739d:	eb 4f                	jmp    73ee <_ZN4core3str16slice_error_fail17h5d6a4c2c63b6013aE+0x2be>
    739f:	74 89                	je     732a <_ZN4core3str16slice_error_fail17h5d6a4c2c63b6013aE+0x1fa>
    73a1:	eb 8a                	jmp    732d <_ZN4core3str16slice_error_fail17h5d6a4c2c63b6013aE+0x1fd>
    73a3:	49 39 d2             	cmp    %rdx,%r10
    73a6:	74 46                	je     73ee <_ZN4core3str16slice_error_fail17h5d6a4c2c63b6013aE+0x2be>
    73a8:	48 01 fa             	add    %rdi,%rdx
    73ab:	80 7a ff bf          	cmpb   $0xbf,-0x1(%rdx)
    73af:	7e 06                	jle    73b7 <_ZN4core3str16slice_error_fail17h5d6a4c2c63b6013aE+0x287>
    73b1:	48 83 c0 fe          	add    $0xfffffffffffffffe,%rax
    73b5:	eb 37                	jmp    73ee <_ZN4core3str16slice_error_fail17h5d6a4c2c63b6013aE+0x2be>
    73b7:	48 8d 4a ff          	lea    -0x1(%rdx),%rcx
    73bb:	49 39 c9             	cmp    %rcx,%r9
    73be:	74 2e                	je     73ee <_ZN4core3str16slice_error_fail17h5d6a4c2c63b6013aE+0x2be>
    73c0:	80 7a fe bf          	cmpb   $0xbf,-0x2(%rdx)
    73c4:	7e 06                	jle    73cc <_ZN4core3str16slice_error_fail17h5d6a4c2c63b6013aE+0x29c>
    73c6:	48 83 c0 fd          	add    $0xfffffffffffffffd,%rax
    73ca:	eb 22                	jmp    73ee <_ZN4core3str16slice_error_fail17h5d6a4c2c63b6013aE+0x2be>
    73cc:	48 8d 4a fe          	lea    -0x2(%rdx),%rcx
    73d0:	49 39 c9             	cmp    %rcx,%r9
    73d3:	74 19                	je     73ee <_ZN4core3str16slice_error_fail17h5d6a4c2c63b6013aE+0x2be>
    73d5:	80 7a fd bf          	cmpb   $0xbf,-0x3(%rdx)
    73d9:	7e 06                	jle    73e1 <_ZN4core3str16slice_error_fail17h5d6a4c2c63b6013aE+0x2b1>
    73db:	48 83 c0 fc          	add    $0xfffffffffffffffc,%rax
    73df:	eb 0d                	jmp    73ee <_ZN4core3str16slice_error_fail17h5d6a4c2c63b6013aE+0x2be>
    73e1:	48 83 c2 fd          	add    $0xfffffffffffffffd,%rdx
    73e5:	49 39 d1             	cmp    %rdx,%r9
    73e8:	74 04                	je     73ee <_ZN4core3str16slice_error_fail17h5d6a4c2c63b6013aE+0x2be>
    73ea:	48 83 c0 fb          	add    $0xfffffffffffffffb,%rax
    73ee:	4c 01 d0             	add    %r10,%rax
    73f1:	48 85 c0             	test   %rax,%rax
    73f4:	75 1c                	jne    7412 <_ZN4core3str16slice_error_fail17h5d6a4c2c63b6013aE+0x2e2>
    73f6:	48 39 f0             	cmp    %rsi,%rax
    73f9:	75 24                	jne    741f <_ZN4core3str16slice_error_fail17h5d6a4c2c63b6013aE+0x2ef>
    73fb:	48 8d 3d 55 bc 03 00 	lea    0x3bc55(%rip),%rdi        # 43057 <_ZN4core7unicode12unicode_data11white_space17SHORT_OFFSET_RUNS17hc9e06d7efe584129E+0x307>
    7402:	be 2b 00 00 00       	mov    $0x2b,%esi
    7407:	4c 89 c2             	mov    %r8,%rdx
    740a:	ff 15 c8 7a 24 00    	callq  *0x247ac8(%rip)        # 24eed8 <_GLOBAL_OFFSET_TABLE_+0x5f8>
    7410:	0f 0b                	ud2    
    7412:	48 39 f0             	cmp    %rsi,%rax
    7415:	73 1e                	jae    7435 <_ZN4core3str16slice_error_fail17h5d6a4c2c63b6013aE+0x305>
    7417:	80 3c 07 bf          	cmpb   $0xbf,(%rdi,%rax,1)
    741b:	7f d9                	jg     73f6 <_ZN4core3str16slice_error_fail17h5d6a4c2c63b6013aE+0x2c6>
    741d:	eb 18                	jmp    7437 <_ZN4core3str16slice_error_fail17h5d6a4c2c63b6013aE+0x307>
    741f:	0f b6 14 07          	movzbl (%rdi,%rax,1),%edx
    7423:	84 d2                	test   %dl,%dl
    7425:	78 1e                	js     7445 <_ZN4core3str16slice_error_fail17h5d6a4c2c63b6013aE+0x315>
    7427:	89 54 24 0c          	mov    %edx,0xc(%rsp)
    742b:	b9 01 00 00 00       	mov    $0x1,%ecx
    7430:	e9 9b 00 00 00       	jmpq   74d0 <_ZN4core3str16slice_error_fail17h5d6a4c2c63b6013aE+0x3a0>
    7435:	74 bf                	je     73f6 <_ZN4core3str16slice_error_fail17h5d6a4c2c63b6013aE+0x2c6>
    7437:	48 89 c2             	mov    %rax,%rdx
    743a:	48 89 f1             	mov    %rsi,%rcx
    743d:	ff 15 b5 7a 24 00    	callq  *0x247ab5(%rip)        # 24eef8 <_GLOBAL_OFFSET_TABLE_+0x618>
    7443:	0f 0b                	ud2    
    7445:	89 d1                	mov    %edx,%ecx
    7447:	83 e1 1f             	and    $0x1f,%ecx
    744a:	0f b6 74 07 01       	movzbl 0x1(%rdi,%rax,1),%esi
    744f:	83 e6 3f             	and    $0x3f,%esi
    7452:	80 fa df             	cmp    $0xdf,%dl
    7455:	76 3a                	jbe    7491 <_ZN4core3str16slice_error_fail17h5d6a4c2c63b6013aE+0x361>
    7457:	44 0f b6 4c 07 02    	movzbl 0x2(%rdi,%rax,1),%r9d
    745d:	c1 e6 06             	shl    $0x6,%esi
    7460:	41 83 e1 3f          	and    $0x3f,%r9d
    7464:	41 09 f1             	or     %esi,%r9d
    7467:	80 fa f0             	cmp    $0xf0,%dl
    746a:	72 2e                	jb     749a <_ZN4core3str16slice_error_fail17h5d6a4c2c63b6013aE+0x36a>
    746c:	0f b6 54 07 03       	movzbl 0x3(%rdi,%rax,1),%edx
    7471:	83 e1 07             	and    $0x7,%ecx
    7474:	c1 e1 12             	shl    $0x12,%ecx
    7477:	41 c1 e1 06          	shl    $0x6,%r9d
    747b:	83 e2 3f             	and    $0x3f,%edx
    747e:	44 09 ca             	or     %r9d,%edx
    7481:	09 ca                	or     %ecx,%edx
    7483:	81 fa 00 00 11 00    	cmp    $0x110000,%edx
    7489:	0f 84 6c ff ff ff    	je     73fb <_ZN4core3str16slice_error_fail17h5d6a4c2c63b6013aE+0x2cb>
    748f:	eb 12                	jmp    74a3 <_ZN4core3str16slice_error_fail17h5d6a4c2c63b6013aE+0x373>
    7491:	c1 e1 06             	shl    $0x6,%ecx
    7494:	09 f1                	or     %esi,%ecx
    7496:	89 ca                	mov    %ecx,%edx
    7498:	eb 09                	jmp    74a3 <_ZN4core3str16slice_error_fail17h5d6a4c2c63b6013aE+0x373>
    749a:	c1 e1 0c             	shl    $0xc,%ecx
    749d:	41 09 c9             	or     %ecx,%r9d
    74a0:	44 89 ca             	mov    %r9d,%edx
    74a3:	89 54 24 0c          	mov    %edx,0xc(%rsp)
    74a7:	b9 01 00 00 00       	mov    $0x1,%ecx
    74ac:	81 fa 80 00 00 00    	cmp    $0x80,%edx
    74b2:	72 1c                	jb     74d0 <_ZN4core3str16slice_error_fail17h5d6a4c2c63b6013aE+0x3a0>
    74b4:	b9 02 00 00 00       	mov    $0x2,%ecx
    74b9:	81 fa 00 08 00 00    	cmp    $0x800,%edx
    74bf:	72 0f                	jb     74d0 <_ZN4core3str16slice_error_fail17h5d6a4c2c63b6013aE+0x3a0>
    74c1:	81 fa 00 00 01 00    	cmp    $0x10000,%edx
    74c7:	b9 04 00 00 00       	mov    $0x4,%ecx
    74cc:	48 83 d9 00          	sbb    $0x0,%rcx
    74d0:	48 01 c1             	add    %rax,%rcx
    74d3:	48 89 84 24 b0 00 00 	mov    %rax,0xb0(%rsp)
    74da:	00 
    74db:	48 89 8c 24 b8 00 00 	mov    %rcx,0xb8(%rsp)
    74e2:	00 
    74e3:	48 8d 84 24 d0 00 00 	lea    0xd0(%rsp),%rax
    74ea:	00 
    74eb:	48 89 44 24 50       	mov    %rax,0x50(%rsp)
    74f0:	48 8d 05 39 61 03 00 	lea    0x36139(%rip),%rax        # 3d630 <_ZN4core3fmt3num3imp52_$LT$impl$u20$core..fmt..Display$u20$for$u20$u64$GT$3fmt17h8a1f1e61295b3fdaE>
    74f7:	48 89 44 24 58       	mov    %rax,0x58(%rsp)
    74fc:	48 8d 44 24 0c       	lea    0xc(%rsp),%rax
    7501:	48 89 44 24 60       	mov    %rax,0x60(%rsp)
    7506:	48 8d 05 e3 38 03 00 	lea    0x338e3(%rip),%rax        # 3adf0 <_ZN41_$LT$char$u20$as$u20$core..fmt..Debug$GT$3fmt17h07f1f5d925f0a2bbE>
    750d:	48 89 44 24 68       	mov    %rax,0x68(%rsp)
    7512:	48 8d 84 24 b0 00 00 	lea    0xb0(%rsp),%rax
    7519:	00 
    751a:	48 89 44 24 70       	mov    %rax,0x70(%rsp)
    751f:	48 8d 05 aa 15 03 00 	lea    0x315aa(%rip),%rax        # 38ad0 <_ZN71_$LT$core..ops..range..Range$LT$Idx$GT$$u20$as$u20$core..fmt..Debug$GT$3fmt17ha3be62b9e4fdb5e6E>
    7526:	48 89 44 24 78       	mov    %rax,0x78(%rsp)
    752b:	48 8d 44 24 10       	lea    0x10(%rsp),%rax
    7530:	48 89 84 24 80 00 00 	mov    %rax,0x80(%rsp)
    7537:	00 
    7538:	48 8d 05 11 64 03 00 	lea    0x36411(%rip),%rax        # 3d950 <_ZN44_$LT$$RF$T$u20$as$u20$core..fmt..Display$GT$3fmt17h1767058c802c2de0E>
    753f:	48 89 84 24 88 00 00 	mov    %rax,0x88(%rsp)
    7546:	00 
    7547:	48 8d 8c 24 a0 00 00 	lea    0xa0(%rsp),%rcx
    754e:	00 
    754f:	48 89 8c 24 90 00 00 	mov    %rcx,0x90(%rsp)
    7556:	00 
    7557:	48 89 84 24 98 00 00 	mov    %rax,0x98(%rsp)
    755e:	00 
    755f:	48 8d 05 1a 70 24 00 	lea    0x24701a(%rip),%rax        # 24e580 <_ZN6object3elf12ELF_NOTE_GNU17h136d06504befa751E+0x1180>
    7566:	48 89 44 24 20       	mov    %rax,0x20(%rsp)
    756b:	48 c7 44 24 28 05 00 	movq   $0x5,0x28(%rsp)
    7572:	00 00 
    7574:	48 c7 44 24 30 00 00 	movq   $0x0,0x30(%rsp)
    757b:	00 00 
    757d:	48 8d 44 24 50       	lea    0x50(%rsp),%rax
    7582:	48 89 44 24 40       	mov    %rax,0x40(%rsp)
    7587:	48 c7 44 24 48 05 00 	movq   $0x5,0x48(%rsp)
    758e:	00 00 
    7590:	48 8d 7c 24 20       	lea    0x20(%rsp),%rdi
    7595:	4c 89 c6             	mov    %r8,%rsi
    7598:	ff 15 9a 74 24 00    	callq  *0x24749a(%rip)        # 24ea38 <_GLOBAL_OFFSET_TABLE_+0x158>
    759e:	0f 0b                	ud2    

00000000000075a0 <_start>:
    75a0:	f3 0f 1e fa          	endbr64 
    75a4:	31 ed                	xor    %ebp,%ebp
    75a6:	49 89 d1             	mov    %rdx,%r9
    75a9:	5e                   	pop    %rsi
    75aa:	48 89 e2             	mov    %rsp,%rdx
    75ad:	48 83 e4 f0          	and    $0xfffffffffffffff0,%rsp
    75b1:	50                   	push   %rax
    75b2:	54                   	push   %rsp
    75b3:	4c 8d 05 86 68 03 00 	lea    0x36886(%rip),%r8        # 3de40 <__libc_csu_fini>
    75ba:	48 8d 0d 0f 68 03 00 	lea    0x3680f(%rip),%rcx        # 3ddd0 <__libc_csu_init>
    75c1:	48 8d 3d d8 0c 00 00 	lea    0xcd8(%rip),%rdi        # 82a0 <main>
    75c8:	ff 15 d2 74 24 00    	callq  *0x2474d2(%rip)        # 24eaa0 <__libc_start_main@GLIBC_2.2.5>
    75ce:	f4                   	hlt    
    75cf:	90                   	nop

00000000000075d0 <deregister_tm_clones>:
    75d0:	48 8d 3d 69 7a 24 00 	lea    0x247a69(%rip),%rdi        # 24f040 <__TMC_END__>
    75d7:	48 8d 05 62 7a 24 00 	lea    0x247a62(%rip),%rax        # 24f040 <__TMC_END__>
    75de:	48 39 f8             	cmp    %rdi,%rax
    75e1:	74 15                	je     75f8 <deregister_tm_clones+0x28>
    75e3:	48 8b 05 3e 75 24 00 	mov    0x24753e(%rip),%rax        # 24eb28 <_ITM_deregisterTMCloneTable>
    75ea:	48 85 c0             	test   %rax,%rax
    75ed:	74 09                	je     75f8 <deregister_tm_clones+0x28>
    75ef:	ff e0                	jmpq   *%rax
    75f1:	0f 1f 80 00 00 00 00 	nopl   0x0(%rax)
    75f8:	c3                   	retq   
    75f9:	0f 1f 80 00 00 00 00 	nopl   0x0(%rax)

0000000000007600 <register_tm_clones>:
    7600:	48 8d 3d 39 7a 24 00 	lea    0x247a39(%rip),%rdi        # 24f040 <__TMC_END__>
    7607:	48 8d 35 32 7a 24 00 	lea    0x247a32(%rip),%rsi        # 24f040 <__TMC_END__>
    760e:	48 29 fe             	sub    %rdi,%rsi
    7611:	48 89 f0             	mov    %rsi,%rax
    7614:	48 c1 ee 3f          	shr    $0x3f,%rsi
    7618:	48 c1 f8 03          	sar    $0x3,%rax
    761c:	48 01 c6             	add    %rax,%rsi
    761f:	48 d1 fe             	sar    %rsi
    7622:	74 14                	je     7638 <register_tm_clones+0x38>
    7624:	48 8b 05 8d 75 24 00 	mov    0x24758d(%rip),%rax        # 24ebb8 <_ITM_registerTMCloneTable>
    762b:	48 85 c0             	test   %rax,%rax
    762e:	74 08                	je     7638 <register_tm_clones+0x38>
    7630:	ff e0                	jmpq   *%rax
    7632:	66 0f 1f 44 00 00    	nopw   0x0(%rax,%rax,1)
    7638:	c3                   	retq   
    7639:	0f 1f 80 00 00 00 00 	nopl   0x0(%rax)

0000000000007640 <__do_global_dtors_aux>:
    7640:	f3 0f 1e fa          	endbr64 
    7644:	80 3d f5 79 24 00 00 	cmpb   $0x0,0x2479f5(%rip)        # 24f040 <__TMC_END__>
    764b:	75 2b                	jne    7678 <__do_global_dtors_aux+0x38>
    764d:	55                   	push   %rbp
    764e:	48 83 3d aa 75 24 00 	cmpq   $0x0,0x2475aa(%rip)        # 24ec00 <__cxa_finalize@GLIBC_2.2.5>
    7655:	00 
    7656:	48 89 e5             	mov    %rsp,%rbp
    7659:	74 0c                	je     7667 <__do_global_dtors_aux+0x27>
    765b:	48 8b 3d 9e 79 24 00 	mov    0x24799e(%rip),%rdi        # 24f000 <__dso_handle>
    7662:	e8 59 e4 ff ff       	callq  5ac0 <__cxa_finalize@plt>
    7667:	e8 64 ff ff ff       	callq  75d0 <deregister_tm_clones>
    766c:	c6 05 cd 79 24 00 01 	movb   $0x1,0x2479cd(%rip)        # 24f040 <__TMC_END__>
    7673:	5d                   	pop    %rbp
    7674:	c3                   	retq   
    7675:	0f 1f 00             	nopl   (%rax)
    7678:	c3                   	retq   
    7679:	0f 1f 80 00 00 00 00 	nopl   0x0(%rax)

0000000000007680 <frame_dummy>:
    7680:	f3 0f 1e fa          	endbr64 
    7684:	e9 77 ff ff ff       	jmpq   7600 <register_tm_clones>
    7689:	0f 1f 80 00 00 00 00 	nopl   0x0(%rax)

0000000000007690 <_ZN4core3ops8function6FnOnce40call_once$u7b$$u7b$vtable.shim$u7d$$u7d$17h4af310163e01c46aE.llvm.13767110465242657722>:
    7690:	50                   	push   %rax
    7691:	48 8b 3f             	mov    (%rdi),%rdi
    7694:	e8 77 0c 00 00       	callq  8310 <_ZN3std10sys_common9backtrace28__rust_begin_short_backtrace17h20570bf2d80a8cfcE>
    7699:	31 c0                	xor    %eax,%eax
    769b:	59                   	pop    %rcx
    769c:	c3                   	retq   
    769d:	0f 1f 00             	nopl   (%rax)

00000000000076a0 <_ZN4core3ptr85drop_in_place$LT$std..rt..lang_start$LT$$LP$$RP$$GT$..$u7b$$u7b$closure$u7d$$u7d$$GT$17h58db20edc8062011E.llvm.13767110465242657722>:
    76a0:	c3                   	retq   
    76a1:	66 2e 0f 1f 84 00 00 	nopw   %cs:0x0(%rax,%rax,1)
    76a8:	00 00 00 
    76ab:	0f 1f 44 00 00       	nopl   0x0(%rax,%rax,1)

00000000000076b0 <_ZN3std2rt10lang_start28_$u7b$$u7b$closure$u7d$$u7d$17h784d1e99863fe046E.llvm.13767110465242657722>:
    76b0:	50                   	push   %rax
    76b1:	48 8b 3f             	mov    (%rdi),%rdi
    76b4:	e8 57 0c 00 00       	callq  8310 <_ZN3std10sys_common9backtrace28__rust_begin_short_backtrace17h20570bf2d80a8cfcE>
    76b9:	31 c0                	xor    %eax,%eax
    76bb:	59                   	pop    %rcx
    76bc:	c3                   	retq   
    76bd:	0f 1f 00             	nopl   (%rax)

00000000000076c0 <_ZN5alloc3vec16Vec$LT$T$C$A$GT$16into_boxed_slice17hab101537b8429a69E>:
    76c0:	41 57                	push   %r15
    76c2:	41 56                	push   %r14
    76c4:	41 54                	push   %r12
    76c6:	53                   	push   %rbx
    76c7:	50                   	push   %rax
    76c8:	48 89 fb             	mov    %rdi,%rbx
    76cb:	48 8b 77 08          	mov    0x8(%rdi),%rsi
    76cf:	4c 8b 77 10          	mov    0x10(%rdi),%r14
    76d3:	4c 39 f6             	cmp    %r14,%rsi
    76d6:	76 57                	jbe    772f <_ZN5alloc3vec16Vec$LT$T$C$A$GT$16into_boxed_slice17hab101537b8429a69E+0x6f>
    76d8:	48 8b 3b             	mov    (%rbx),%rdi
    76db:	48 c1 e6 03          	shl    $0x3,%rsi
    76df:	4e 8d 3c f5 00 00 00 	lea    0x0(,%r14,8),%r15
    76e6:	00 
    76e7:	4d 85 ff             	test   %r15,%r15
    76ea:	74 26                	je     7712 <_ZN5alloc3vec16Vec$LT$T$C$A$GT$16into_boxed_slice17hab101537b8429a69E+0x52>
    76ec:	ba 08 00 00 00       	mov    $0x8,%edx
    76f1:	4c 89 f9             	mov    %r15,%rcx
    76f4:	ff 15 5e 72 24 00    	callq  *0x24725e(%rip)        # 24e958 <_GLOBAL_OFFSET_TABLE_+0x78>
    76fa:	49 89 c4             	mov    %rax,%r12
    76fd:	48 85 c0             	test   %rax,%rax
    7700:	75 26                	jne    7728 <_ZN5alloc3vec16Vec$LT$T$C$A$GT$16into_boxed_slice17hab101537b8429a69E+0x68>
    7702:	be 08 00 00 00       	mov    $0x8,%esi
    7707:	4c 89 ff             	mov    %r15,%rdi
    770a:	ff 15 e0 76 24 00    	callq  *0x2476e0(%rip)        # 24edf0 <_GLOBAL_OFFSET_TABLE_+0x510>
    7710:	0f 0b                	ud2    
    7712:	41 bc 08 00 00 00    	mov    $0x8,%r12d
    7718:	48 85 f6             	test   %rsi,%rsi
    771b:	74 0b                	je     7728 <_ZN5alloc3vec16Vec$LT$T$C$A$GT$16into_boxed_slice17hab101537b8429a69E+0x68>
    771d:	ba 08 00 00 00       	mov    $0x8,%edx
    7722:	ff 15 f8 73 24 00    	callq  *0x2473f8(%rip)        # 24eb20 <_GLOBAL_OFFSET_TABLE_+0x240>
    7728:	4c 89 23             	mov    %r12,(%rbx)
    772b:	4c 89 73 08          	mov    %r14,0x8(%rbx)
    772f:	48 8b 03             	mov    (%rbx),%rax
    7732:	4c 89 f2             	mov    %r14,%rdx
    7735:	48 83 c4 08          	add    $0x8,%rsp
    7739:	5b                   	pop    %rbx
    773a:	41 5c                	pop    %r12
    773c:	41 5e                	pop    %r14
    773e:	41 5f                	pop    %r15
    7740:	c3                   	retq   
    7741:	49 89 c6             	mov    %rax,%r14
    7744:	48 89 df             	mov    %rbx,%rdi
    7747:	e8 d4 0b 00 00       	callq  8320 <_ZN77_$LT$alloc..raw_vec..RawVec$LT$T$C$A$GT$$u20$as$u20$core..ops..drop..Drop$GT$4drop17hca3c503b05c5ef6cE>
    774c:	4c 89 f7             	mov    %r14,%rdi
    774f:	e8 5c e3 ff ff       	callq  5ab0 <_Unwind_Resume@plt>
    7754:	0f 0b                	ud2    
    7756:	ff 15 0c 78 24 00    	callq  *0x24780c(%rip)        # 24ef68 <_GLOBAL_OFFSET_TABLE_+0x688>
    775c:	0f 0b                	ud2    
    775e:	66 90                	xchg   %ax,%ax

0000000000007760 <_ZN4core3ptr28drop_in_place$LT$$RF$str$GT$17h97bc2dd3f7ece122E>:
    7760:	c3                   	retq   
    7761:	66 2e 0f 1f 84 00 00 	nopw   %cs:0x0(%rax,%rax,1)
    7768:	00 00 00 
    776b:	0f 1f 44 00 00       	nopl   0x0(%rax,%rax,1)

0000000000007770 <_ZN18coroutine_overhead15matrix_dot_plus17hc8edb6c01fcb43b6E>:
    7770:	55                   	push   %rbp
    7771:	41 57                	push   %r15
    7773:	41 56                	push   %r14
    7775:	41 55                	push   %r13
    7777:	41 54                	push   %r12
    7779:	53                   	push   %rbx
    777a:	48 83 ec 18          	sub    $0x18,%rsp
    777e:	48 8d 05 2b 67 03 00 	lea    0x3672b(%rip),%rax        # 3deb0 <_fini+0x2c>
    7785:	4c 39 ca             	cmp    %r9,%rdx
    7788:	0f 85 c6 00 00 00    	jne    7854 <_ZN18coroutine_overhead15matrix_dot_plus17hc8edb6c01fcb43b6E+0xe4>
    778e:	48 3b 54 24 60       	cmp    0x60(%rsp),%rdx
    7793:	0f 85 bb 00 00 00    	jne    7854 <_ZN18coroutine_overhead15matrix_dot_plus17hc8edb6c01fcb43b6E+0xe4>
    7799:	48 85 d2             	test   %rdx,%rdx
    779c:	0f 84 b0 00 00 00    	je     7852 <_ZN18coroutine_overhead15matrix_dot_plus17hc8edb6c01fcb43b6E+0xe2>
    77a2:	48 8d 04 d5 00 00 00 	lea    0x0(,%rdx,8),%rax
    77a9:	00 
    77aa:	48 89 44 24 08       	mov    %rax,0x8(%rsp)
    77af:	45 31 d2             	xor    %r10d,%r10d
    77b2:	45 31 ed             	xor    %r13d,%r13d
    77b5:	49 8d 45 01          	lea    0x1(%r13),%rax
    77b9:	48 89 44 24 10       	mov    %rax,0x10(%rsp)
    77be:	4c 0f af ea          	imul   %rdx,%r13
    77c2:	45 31 db             	xor    %r11d,%r11d
    77c5:	66 2e 0f 1f 84 00 00 	nopw   %cs:0x0(%rax,%rax,1)
    77cc:	00 00 00 
    77cf:	90                   	nop
    77d0:	4d 8d 73 01          	lea    0x1(%r11),%r14
    77d4:	4c 89 db             	mov    %r11,%rbx
    77d7:	45 31 ff             	xor    %r15d,%r15d
    77da:	45 31 e4             	xor    %r12d,%r12d
    77dd:	0f 1f 00             	nopl   (%rax)
    77e0:	4f 8d 0c 22          	lea    (%r10,%r12,1),%r9
    77e4:	49 39 f1             	cmp    %rsi,%r9
    77e7:	73 7a                	jae    7863 <_ZN18coroutine_overhead15matrix_dot_plus17hc8edb6c01fcb43b6E+0xf3>
    77e9:	4c 39 c3             	cmp    %r8,%rbx
    77ec:	0f 83 8a 00 00 00    	jae    787c <_ZN18coroutine_overhead15matrix_dot_plus17hc8edb6c01fcb43b6E+0x10c>
    77f2:	42 0f b7 04 e7       	movzwl (%rdi,%r12,8),%eax
    77f7:	49 83 c4 01          	add    $0x1,%r12
    77fb:	0f b7 2c d9          	movzwl (%rcx,%rbx,8),%ebp
    77ff:	48 0f af e8          	imul   %rax,%rbp
    7803:	49 01 ef             	add    %rbp,%r15
    7806:	48 01 d3             	add    %rdx,%rbx
    7809:	4c 39 e2             	cmp    %r12,%rdx
    780c:	75 d2                	jne    77e0 <_ZN18coroutine_overhead15matrix_dot_plus17hc8edb6c01fcb43b6E+0x70>
    780e:	4d 01 eb             	add    %r13,%r11
    7811:	4c 3b 5c 24 58       	cmp    0x58(%rsp),%r11
    7816:	73 79                	jae    7891 <_ZN18coroutine_overhead15matrix_dot_plus17hc8edb6c01fcb43b6E+0x121>
    7818:	41 0f b7 c7          	movzwl %r15w,%eax
    781c:	48 8b 5c 24 50       	mov    0x50(%rsp),%rbx
    7821:	42 0f b7 2c db       	movzwl (%rbx,%r11,8),%ebp
    7826:	48 01 c5             	add    %rax,%rbp
    7829:	4a 89 2c db          	mov    %rbp,(%rbx,%r11,8)
    782d:	4d 89 f3             	mov    %r14,%r11
    7830:	49 39 d6             	cmp    %rdx,%r14
    7833:	75 9b                	jne    77d0 <_ZN18coroutine_overhead15matrix_dot_plus17hc8edb6c01fcb43b6E+0x60>
    7835:	49 01 d2             	add    %rdx,%r10
    7838:	48 03 7c 24 08       	add    0x8(%rsp),%rdi
    783d:	4c 8b 6c 24 10       	mov    0x10(%rsp),%r13
    7842:	49 39 d5             	cmp    %rdx,%r13
    7845:	b8 00 00 00 00       	mov    $0x0,%eax
    784a:	0f 85 65 ff ff ff    	jne    77b5 <_ZN18coroutine_overhead15matrix_dot_plus17hc8edb6c01fcb43b6E+0x45>
    7850:	eb 02                	jmp    7854 <_ZN18coroutine_overhead15matrix_dot_plus17hc8edb6c01fcb43b6E+0xe4>
    7852:	31 c0                	xor    %eax,%eax
    7854:	48 83 c4 18          	add    $0x18,%rsp
    7858:	5b                   	pop    %rbx
    7859:	41 5c                	pop    %r12
    785b:	41 5d                	pop    %r13
    785d:	41 5e                	pop    %r14
    785f:	41 5f                	pop    %r15
    7861:	5d                   	pop    %rbp
    7862:	c3                   	retq   
    7863:	4c 39 d6             	cmp    %r10,%rsi
    7866:	4c 0f 47 d6          	cmova  %rsi,%r10
    786a:	48 8d 15 f7 45 24 00 	lea    0x2445f7(%rip),%rdx        # 24be68 <anon.301c5d4cbd7f8c5b61df91e2cad8fefb.0.llvm.13767110465242657722+0x30>
    7871:	4c 89 d7             	mov    %r10,%rdi
    7874:	ff 15 ee 75 24 00    	callq  *0x2475ee(%rip)        # 24ee68 <_GLOBAL_OFFSET_TABLE_+0x588>
    787a:	0f 0b                	ud2    
    787c:	48 8d 15 fd 45 24 00 	lea    0x2445fd(%rip),%rdx        # 24be80 <anon.301c5d4cbd7f8c5b61df91e2cad8fefb.0.llvm.13767110465242657722+0x48>
    7883:	48 89 df             	mov    %rbx,%rdi
    7886:	4c 89 c6             	mov    %r8,%rsi
    7889:	ff 15 d9 75 24 00    	callq  *0x2475d9(%rip)        # 24ee68 <_GLOBAL_OFFSET_TABLE_+0x588>
    788f:	0f 0b                	ud2    
    7891:	48 8d 15 00 46 24 00 	lea    0x244600(%rip),%rdx        # 24be98 <anon.301c5d4cbd7f8c5b61df91e2cad8fefb.0.llvm.13767110465242657722+0x60>
    7898:	4c 89 df             	mov    %r11,%rdi
    789b:	48 8b 74 24 58       	mov    0x58(%rsp),%rsi
    78a0:	ff 15 c2 75 24 00    	callq  *0x2475c2(%rip)        # 24ee68 <_GLOBAL_OFFSET_TABLE_+0x588>
    78a6:	0f 0b                	ud2    
    78a8:	0f 1f 84 00 00 00 00 	nopl   0x0(%rax,%rax,1)
    78af:	00 

00000000000078b0 <_ZN18coroutine_overhead4main17hfcb01b1936cc4c3dE>:
    78b0:	55                   	push   %rbp
    78b1:	41 57                	push   %r15
    78b3:	41 56                	push   %r14
    78b5:	41 55                	push   %r13
    78b7:	41 54                	push   %r12
    78b9:	53                   	push   %rbx
    78ba:	48 81 ec e8 00 00 00 	sub    $0xe8,%rsp
    78c1:	bf 00 12 7a 00       	mov    $0x7a1200,%edi
    78c6:	be 08 00 00 00       	mov    $0x8,%esi
    78cb:	ff 15 af 72 24 00    	callq  *0x2472af(%rip)        # 24eb80 <_GLOBAL_OFFSET_TABLE_+0x2a0>
    78d1:	48 85 c0             	test   %rax,%rax
    78d4:	0f 84 66 08 00 00    	je     8140 <_ZN18coroutine_overhead4main17hfcb01b1936cc4c3dE+0x890>
    78da:	48 89 44 24 68       	mov    %rax,0x68(%rsp)
    78df:	0f 28 05 ba 65 03 00 	movaps 0x365ba(%rip),%xmm0        # 3dea0 <_fini+0x1c>
    78e6:	0f 11 44 24 70       	movups %xmm0,0x70(%rsp)
    78eb:	48 8d 7c 24 68       	lea    0x68(%rsp),%rdi
    78f0:	e8 cb fd ff ff       	callq  76c0 <_ZN5alloc3vec16Vec$LT$T$C$A$GT$16into_boxed_slice17hab101537b8429a69E>
    78f5:	48 89 44 24 20       	mov    %rax,0x20(%rsp)
    78fa:	48 89 54 24 28       	mov    %rdx,0x28(%rsp)
    78ff:	48 c7 44 24 30 e8 03 	movq   $0x3e8,0x30(%rsp)
    7906:	00 00 
    7908:	bf 00 12 7a 00       	mov    $0x7a1200,%edi
    790d:	be 08 00 00 00       	mov    $0x8,%esi
    7912:	ff 15 68 72 24 00    	callq  *0x247268(%rip)        # 24eb80 <_GLOBAL_OFFSET_TABLE_+0x2a0>
    7918:	48 85 c0             	test   %rax,%rax
    791b:	0f 84 31 08 00 00    	je     8152 <_ZN18coroutine_overhead4main17hfcb01b1936cc4c3dE+0x8a2>
    7921:	48 89 44 24 68       	mov    %rax,0x68(%rsp)
    7926:	0f 28 05 73 65 03 00 	movaps 0x36573(%rip),%xmm0        # 3dea0 <_fini+0x1c>
    792d:	0f 11 44 24 70       	movups %xmm0,0x70(%rsp)
    7932:	48 8d 7c 24 68       	lea    0x68(%rsp),%rdi
    7937:	e8 84 fd ff ff       	callq  76c0 <_ZN5alloc3vec16Vec$LT$T$C$A$GT$16into_boxed_slice17hab101537b8429a69E>
    793c:	48 89 44 24 38       	mov    %rax,0x38(%rsp)
    7941:	48 89 54 24 40       	mov    %rdx,0x40(%rsp)
    7946:	48 c7 44 24 48 e8 03 	movq   $0x3e8,0x48(%rsp)
    794d:	00 00 
    794f:	bf 00 12 7a 00       	mov    $0x7a1200,%edi
    7954:	be 08 00 00 00       	mov    $0x8,%esi
    7959:	ff 15 21 72 24 00    	callq  *0x247221(%rip)        # 24eb80 <_GLOBAL_OFFSET_TABLE_+0x2a0>
    795f:	48 85 c0             	test   %rax,%rax
    7962:	0f 84 ff 07 00 00    	je     8167 <_ZN18coroutine_overhead4main17hfcb01b1936cc4c3dE+0x8b7>
    7968:	48 89 44 24 68       	mov    %rax,0x68(%rsp)
    796d:	0f 28 05 2c 65 03 00 	movaps 0x3652c(%rip),%xmm0        # 3dea0 <_fini+0x1c>
    7974:	0f 11 44 24 70       	movups %xmm0,0x70(%rsp)
    7979:	48 8d 7c 24 68       	lea    0x68(%rsp),%rdi
    797e:	e8 3d fd ff ff       	callq  76c0 <_ZN5alloc3vec16Vec$LT$T$C$A$GT$16into_boxed_slice17hab101537b8429a69E>
    7983:	48 89 44 24 50       	mov    %rax,0x50(%rsp)
    7988:	48 89 54 24 58       	mov    %rdx,0x58(%rsp)
    798d:	48 c7 44 24 60 e8 03 	movq   $0x3e8,0x60(%rsp)
    7994:	00 00 
    7996:	48 8b 74 24 28       	mov    0x28(%rsp),%rsi
    799b:	48 8b 44 24 30       	mov    0x30(%rsp),%rax
    79a0:	48 89 c1             	mov    %rax,%rcx
    79a3:	48 0f af c8          	imul   %rax,%rcx
    79a7:	48 39 f1             	cmp    %rsi,%rcx
    79aa:	0f 87 cc 07 00 00    	ja     817c <_ZN18coroutine_overhead4main17hfcb01b1936cc4c3dE+0x8cc>
    79b0:	48 85 c0             	test   %rax,%rax
    79b3:	74 60                	je     7a15 <_ZN18coroutine_overhead4main17hfcb01b1936cc4c3dE+0x165>
    79b5:	48 8b 54 24 20       	mov    0x20(%rsp),%rdx
    79ba:	48 8b 0d 4f 76 24 00 	mov    0x24764f(%rip),%rcx        # 24f010 <_ZN18coroutine_overhead6random4seed17h36b690121134c00bE.0>
    79c1:	4c 8d 04 c5 00 00 00 	lea    0x0(,%rax,8),%r8
    79c8:	00 
    79c9:	31 db                	xor    %ebx,%ebx
    79cb:	45 31 c9             	xor    %r9d,%r9d
    79ce:	66 90                	xchg   %ax,%ax
    79d0:	49 83 c1 01          	add    $0x1,%r9
    79d4:	31 ed                	xor    %ebp,%ebp
    79d6:	66 2e 0f 1f 84 00 00 	nopw   %cs:0x0(%rax,%rax,1)
    79dd:	00 00 00 
    79e0:	69 c9 17 27 00 00    	imul   $0x2717,%ecx,%ecx
    79e6:	83 c1 03             	add    $0x3,%ecx
    79e9:	48 8d 3c 2b          	lea    (%rbx,%rbp,1),%rdi
    79ed:	48 39 f7             	cmp    %rsi,%rdi
    79f0:	0f 83 75 06 00 00    	jae    806b <_ZN18coroutine_overhead4main17hfcb01b1936cc4c3dE+0x7bb>
    79f6:	48 89 0c ea          	mov    %rcx,(%rdx,%rbp,8)
    79fa:	48 83 c5 01          	add    $0x1,%rbp
    79fe:	48 39 e8             	cmp    %rbp,%rax
    7a01:	75 dd                	jne    79e0 <_ZN18coroutine_overhead4main17hfcb01b1936cc4c3dE+0x130>
    7a03:	48 89 0d 06 76 24 00 	mov    %rcx,0x247606(%rip)        # 24f010 <_ZN18coroutine_overhead6random4seed17h36b690121134c00bE.0>
    7a0a:	48 01 c3             	add    %rax,%rbx
    7a0d:	4c 01 c2             	add    %r8,%rdx
    7a10:	49 39 c1             	cmp    %rax,%r9
    7a13:	75 bb                	jne    79d0 <_ZN18coroutine_overhead4main17hfcb01b1936cc4c3dE+0x120>
    7a15:	4c 8b 44 24 40       	mov    0x40(%rsp),%r8
    7a1a:	48 8b 44 24 48       	mov    0x48(%rsp),%rax
    7a1f:	48 89 c1             	mov    %rax,%rcx
    7a22:	48 0f af c8          	imul   %rax,%rcx
    7a26:	4c 39 c1             	cmp    %r8,%rcx
    7a29:	0f 87 89 07 00 00    	ja     81b8 <_ZN18coroutine_overhead4main17hfcb01b1936cc4c3dE+0x908>
    7a2f:	48 8b 4c 24 38       	mov    0x38(%rsp),%rcx
    7a34:	48 85 c0             	test   %rax,%rax
    7a37:	74 6d                	je     7aa6 <_ZN18coroutine_overhead4main17hfcb01b1936cc4c3dE+0x1f6>
    7a39:	48 8b 15 d0 75 24 00 	mov    0x2475d0(%rip),%rdx        # 24f010 <_ZN18coroutine_overhead6random4seed17h36b690121134c00bE.0>
    7a40:	4c 8d 0c c5 00 00 00 	lea    0x0(,%rax,8),%r9
    7a47:	00 
    7a48:	31 ed                	xor    %ebp,%ebp
    7a4a:	31 db                	xor    %ebx,%ebx
    7a4c:	0f 1f 40 00          	nopl   0x0(%rax)
    7a50:	48 83 c3 01          	add    $0x1,%rbx
    7a54:	31 f6                	xor    %esi,%esi
    7a56:	66 2e 0f 1f 84 00 00 	nopw   %cs:0x0(%rax,%rax,1)
    7a5d:	00 00 00 
    7a60:	69 d2 17 27 00 00    	imul   $0x2717,%edx,%edx
    7a66:	83 c2 03             	add    $0x3,%edx
    7a69:	48 8d 3c 2e          	lea    (%rsi,%rbp,1),%rdi
    7a6d:	4c 39 c7             	cmp    %r8,%rdi
    7a70:	0f 83 0e 06 00 00    	jae    8084 <_ZN18coroutine_overhead4main17hfcb01b1936cc4c3dE+0x7d4>
    7a76:	48 89 14 f1          	mov    %rdx,(%rcx,%rsi,8)
    7a7a:	48 83 c6 01          	add    $0x1,%rsi
    7a7e:	48 39 f0             	cmp    %rsi,%rax
    7a81:	75 dd                	jne    7a60 <_ZN18coroutine_overhead4main17hfcb01b1936cc4c3dE+0x1b0>
    7a83:	48 89 15 86 75 24 00 	mov    %rdx,0x247586(%rip)        # 24f010 <_ZN18coroutine_overhead6random4seed17h36b690121134c00bE.0>
    7a8a:	48 01 c5             	add    %rax,%rbp
    7a8d:	4c 01 c9             	add    %r9,%rcx
    7a90:	48 39 c3             	cmp    %rax,%rbx
    7a93:	75 bb                	jne    7a50 <_ZN18coroutine_overhead4main17hfcb01b1936cc4c3dE+0x1a0>
    7a95:	48 8b 4c 24 38       	mov    0x38(%rsp),%rcx
    7a9a:	4c 8b 44 24 40       	mov    0x40(%rsp),%r8
    7a9f:	4c 8b 4c 24 48       	mov    0x48(%rsp),%r9
    7aa4:	eb 03                	jmp    7aa9 <_ZN18coroutine_overhead4main17hfcb01b1936cc4c3dE+0x1f9>
    7aa6:	45 31 c9             	xor    %r9d,%r9d
    7aa9:	48 8b 7c 24 20       	mov    0x20(%rsp),%rdi
    7aae:	48 8b 74 24 28       	mov    0x28(%rsp),%rsi
    7ab3:	48 8b 54 24 30       	mov    0x30(%rsp),%rdx
    7ab8:	0f 10 44 24 50       	movups 0x50(%rsp),%xmm0
    7abd:	48 8b 44 24 60       	mov    0x60(%rsp),%rax
    7ac2:	48 89 44 24 10       	mov    %rax,0x10(%rsp)
    7ac7:	0f 11 04 24          	movups %xmm0,(%rsp)
    7acb:	e8 a0 fc ff ff       	callq  7770 <_ZN18coroutine_overhead15matrix_dot_plus17hc8edb6c01fcb43b6E>
    7ad0:	48 85 c0             	test   %rax,%rax
    7ad3:	0f 85 1b 07 00 00    	jne    81f4 <_ZN18coroutine_overhead4main17hfcb01b1936cc4c3dE+0x944>
    7ad9:	48 8d 05 32 64 03 00 	lea    0x36432(%rip),%rax        # 3df12 <_fini+0x8e>
    7ae0:	48 89 84 24 98 00 00 	mov    %rax,0x98(%rsp)
    7ae7:	00 
    7ae8:	48 c7 84 24 a0 00 00 	movq   $0x5,0xa0(%rsp)
    7aef:	00 05 00 00 00 
    7af4:	ff 15 06 73 24 00    	callq  *0x247306(%rip)        # 24ee00 <_GLOBAL_OFFSET_TABLE_+0x520>
    7afa:	48 89 c3             	mov    %rax,%rbx
    7afd:	49 89 d7             	mov    %rdx,%r15
    7b00:	48 8d 7c 24 20       	lea    0x20(%rsp),%rdi
    7b05:	48 8d 74 24 38       	lea    0x38(%rsp),%rsi
    7b0a:	48 8d 54 24 50       	lea    0x50(%rsp),%rdx
    7b0f:	e8 ac 0d 00 00       	callq  88c0 <_ZN18coroutine_overhead8function8dot_fast17h2c66bf3c61ad7b39E>
    7b14:	48 85 c0             	test   %rax,%rax
    7b17:	0f 85 83 05 00 00    	jne    80a0 <_ZN18coroutine_overhead4main17hfcb01b1936cc4c3dE+0x7f0>
    7b1d:	48 8d 7c 24 20       	lea    0x20(%rsp),%rdi
    7b22:	48 8d 74 24 38       	lea    0x38(%rsp),%rsi
    7b27:	48 8d 54 24 50       	lea    0x50(%rsp),%rdx
    7b2c:	e8 8f 0d 00 00       	callq  88c0 <_ZN18coroutine_overhead8function8dot_fast17h2c66bf3c61ad7b39E>
    7b31:	48 85 c0             	test   %rax,%rax
    7b34:	0f 85 66 05 00 00    	jne    80a0 <_ZN18coroutine_overhead4main17hfcb01b1936cc4c3dE+0x7f0>
    7b3a:	48 8d 7c 24 20       	lea    0x20(%rsp),%rdi
    7b3f:	48 8d 74 24 38       	lea    0x38(%rsp),%rsi
    7b44:	48 8d 54 24 50       	lea    0x50(%rsp),%rdx
    7b49:	e8 72 0d 00 00       	callq  88c0 <_ZN18coroutine_overhead8function8dot_fast17h2c66bf3c61ad7b39E>
    7b4e:	48 85 c0             	test   %rax,%rax
    7b51:	0f 85 49 05 00 00    	jne    80a0 <_ZN18coroutine_overhead4main17hfcb01b1936cc4c3dE+0x7f0>
    7b57:	48 8d 7c 24 20       	lea    0x20(%rsp),%rdi
    7b5c:	48 8d 74 24 38       	lea    0x38(%rsp),%rsi
    7b61:	48 8d 54 24 50       	lea    0x50(%rsp),%rdx
    7b66:	e8 55 0d 00 00       	callq  88c0 <_ZN18coroutine_overhead8function8dot_fast17h2c66bf3c61ad7b39E>
    7b6b:	48 85 c0             	test   %rax,%rax
    7b6e:	0f 85 2c 05 00 00    	jne    80a0 <_ZN18coroutine_overhead4main17hfcb01b1936cc4c3dE+0x7f0>
    7b74:	48 8d 7c 24 20       	lea    0x20(%rsp),%rdi
    7b79:	48 8d 74 24 38       	lea    0x38(%rsp),%rsi
    7b7e:	48 8d 54 24 50       	lea    0x50(%rsp),%rdx
    7b83:	e8 38 0d 00 00       	callq  88c0 <_ZN18coroutine_overhead8function8dot_fast17h2c66bf3c61ad7b39E>
    7b88:	48 85 c0             	test   %rax,%rax
    7b8b:	0f 85 0f 05 00 00    	jne    80a0 <_ZN18coroutine_overhead4main17hfcb01b1936cc4c3dE+0x7f0>
    7b91:	ff 15 69 72 24 00    	callq  *0x247269(%rip)        # 24ee00 <_GLOBAL_OFFSET_TABLE_+0x520>
    7b97:	48 89 c7             	mov    %rax,%rdi
    7b9a:	48 89 d6             	mov    %rdx,%rsi
    7b9d:	48 89 da             	mov    %rbx,%rdx
    7ba0:	4c 89 f9             	mov    %r15,%rcx
    7ba3:	ff 15 6f 73 24 00    	callq  *0x24736f(%rip)        # 24ef18 <_GLOBAL_OFFSET_TABLE_+0x638>
    7ba9:	48 89 c7             	mov    %rax,%rdi
    7bac:	48 89 d6             	mov    %rdx,%rsi
    7baf:	ba 05 00 00 00       	mov    $0x5,%edx
    7bb4:	ff 15 4e 6f 24 00    	callq  *0x246f4e(%rip)        # 24eb08 <_GLOBAL_OFFSET_TABLE_+0x228>
    7bba:	48 89 84 24 a8 00 00 	mov    %rax,0xa8(%rsp)
    7bc1:	00 
    7bc2:	48 89 94 24 b0 00 00 	mov    %rdx,0xb0(%rsp)
    7bc9:	00 
    7bca:	48 8d 84 24 98 00 00 	lea    0x98(%rsp),%rax
    7bd1:	00 
    7bd2:	48 89 44 24 68       	mov    %rax,0x68(%rsp)
    7bd7:	48 8d 05 12 07 00 00 	lea    0x712(%rip),%rax        # 82f0 <_ZN44_$LT$$RF$T$u20$as$u20$core..fmt..Display$GT$3fmt17he15f5438d4b7f0ccE>
    7bde:	48 89 44 24 70       	mov    %rax,0x70(%rsp)
    7be3:	48 8d 05 16 63 03 00 	lea    0x36316(%rip),%rax        # 3df00 <_fini+0x7c>
    7bea:	48 89 44 24 78       	mov    %rax,0x78(%rsp)
    7bef:	4c 8d 35 3a 5a 03 00 	lea    0x35a3a(%rip),%r14        # 3d630 <_ZN4core3fmt3num3imp52_$LT$impl$u20$core..fmt..Display$u20$for$u20$u64$GT$3fmt17h8a1f1e61295b3fdaE>
    7bf6:	4c 89 b4 24 80 00 00 	mov    %r14,0x80(%rsp)
    7bfd:	00 
    7bfe:	4c 8d a4 24 a8 00 00 	lea    0xa8(%rsp),%r12
    7c05:	00 
    7c06:	4c 89 a4 24 88 00 00 	mov    %r12,0x88(%rsp)
    7c0d:	00 
    7c0e:	4c 8d 2d 4b 1d 00 00 	lea    0x1d4b(%rip),%r13        # 9960 <_ZN63_$LT$nix..sys..time..TimeSpec$u20$as$u20$core..fmt..Display$GT$3fmt17h1151b601a1e3c19dE>
    7c15:	4c 89 ac 24 90 00 00 	mov    %r13,0x90(%rsp)
    7c1c:	00 
    7c1d:	48 8d 2d a4 42 24 00 	lea    0x2442a4(%rip),%rbp        # 24bec8 <anon.301c5d4cbd7f8c5b61df91e2cad8fefb.0.llvm.13767110465242657722+0x90>
    7c24:	48 89 ac 24 b8 00 00 	mov    %rbp,0xb8(%rsp)
    7c2b:	00 
    7c2c:	48 c7 84 24 c0 00 00 	movq   $0x4,0xc0(%rsp)
    7c33:	00 04 00 00 00 
    7c38:	48 c7 84 24 c8 00 00 	movq   $0x0,0xc8(%rsp)
    7c3f:	00 00 00 00 00 
    7c44:	48 8d 44 24 68       	lea    0x68(%rsp),%rax
    7c49:	48 89 84 24 d8 00 00 	mov    %rax,0xd8(%rsp)
    7c50:	00 
    7c51:	48 c7 84 24 e0 00 00 	movq   $0x3,0xe0(%rsp)
    7c58:	00 03 00 00 00 
    7c5d:	48 8d bc 24 b8 00 00 	lea    0xb8(%rsp),%rdi
    7c64:	00 
    7c65:	ff 15 3d 6f 24 00    	callq  *0x246f3d(%rip)        # 24eba8 <_GLOBAL_OFFSET_TABLE_+0x2c8>
    7c6b:	48 8d 05 a5 62 03 00 	lea    0x362a5(%rip),%rax        # 3df17 <_fini+0x93>
    7c72:	48 89 84 24 98 00 00 	mov    %rax,0x98(%rsp)
    7c79:	00 
    7c7a:	48 c7 84 24 a0 00 00 	movq   $0x4,0xa0(%rsp)
    7c81:	00 04 00 00 00 
    7c86:	ff 15 74 71 24 00    	callq  *0x247174(%rip)        # 24ee00 <_GLOBAL_OFFSET_TABLE_+0x520>
    7c8c:	48 89 c3             	mov    %rax,%rbx
    7c8f:	49 89 d7             	mov    %rdx,%r15
    7c92:	48 8b 7c 24 20       	mov    0x20(%rsp),%rdi
    7c97:	48 8b 74 24 28       	mov    0x28(%rsp),%rsi
    7c9c:	48 8b 54 24 30       	mov    0x30(%rsp),%rdx
    7ca1:	48 8b 4c 24 38       	mov    0x38(%rsp),%rcx
    7ca6:	4c 8b 44 24 40       	mov    0x40(%rsp),%r8
    7cab:	4c 8b 4c 24 48       	mov    0x48(%rsp),%r9
    7cb0:	0f 10 44 24 50       	movups 0x50(%rsp),%xmm0
    7cb5:	48 8b 44 24 60       	mov    0x60(%rsp),%rax
    7cba:	48 89 44 24 10       	mov    %rax,0x10(%rsp)
    7cbf:	0f 11 04 24          	movups %xmm0,(%rsp)
    7cc3:	e8 a8 fa ff ff       	callq  7770 <_ZN18coroutine_overhead15matrix_dot_plus17hc8edb6c01fcb43b6E>
    7cc8:	48 85 c0             	test   %rax,%rax
    7ccb:	0f 85 03 04 00 00    	jne    80d4 <_ZN18coroutine_overhead4main17hfcb01b1936cc4c3dE+0x824>
    7cd1:	48 8b 7c 24 20       	mov    0x20(%rsp),%rdi
    7cd6:	48 8b 74 24 28       	mov    0x28(%rsp),%rsi
    7cdb:	48 8b 54 24 30       	mov    0x30(%rsp),%rdx
    7ce0:	48 8b 4c 24 38       	mov    0x38(%rsp),%rcx
    7ce5:	4c 8b 44 24 40       	mov    0x40(%rsp),%r8
    7cea:	4c 8b 4c 24 48       	mov    0x48(%rsp),%r9
    7cef:	0f 10 44 24 50       	movups 0x50(%rsp),%xmm0
    7cf4:	48 8b 44 24 60       	mov    0x60(%rsp),%rax
    7cf9:	48 89 44 24 10       	mov    %rax,0x10(%rsp)
    7cfe:	0f 11 04 24          	movups %xmm0,(%rsp)
    7d02:	e8 69 fa ff ff       	callq  7770 <_ZN18coroutine_overhead15matrix_dot_plus17hc8edb6c01fcb43b6E>
    7d07:	48 85 c0             	test   %rax,%rax
    7d0a:	0f 85 c4 03 00 00    	jne    80d4 <_ZN18coroutine_overhead4main17hfcb01b1936cc4c3dE+0x824>
    7d10:	48 8b 7c 24 20       	mov    0x20(%rsp),%rdi
    7d15:	48 8b 74 24 28       	mov    0x28(%rsp),%rsi
    7d1a:	48 8b 54 24 30       	mov    0x30(%rsp),%rdx
    7d1f:	48 8b 4c 24 38       	mov    0x38(%rsp),%rcx
    7d24:	4c 8b 44 24 40       	mov    0x40(%rsp),%r8
    7d29:	4c 8b 4c 24 48       	mov    0x48(%rsp),%r9
    7d2e:	0f 10 44 24 50       	movups 0x50(%rsp),%xmm0
    7d33:	48 8b 44 24 60       	mov    0x60(%rsp),%rax
    7d38:	48 89 44 24 10       	mov    %rax,0x10(%rsp)
    7d3d:	0f 11 04 24          	movups %xmm0,(%rsp)
    7d41:	e8 2a fa ff ff       	callq  7770 <_ZN18coroutine_overhead15matrix_dot_plus17hc8edb6c01fcb43b6E>
    7d46:	48 85 c0             	test   %rax,%rax
    7d49:	0f 85 85 03 00 00    	jne    80d4 <_ZN18coroutine_overhead4main17hfcb01b1936cc4c3dE+0x824>
    7d4f:	48 8b 7c 24 20       	mov    0x20(%rsp),%rdi
    7d54:	48 8b 74 24 28       	mov    0x28(%rsp),%rsi
    7d59:	48 8b 54 24 30       	mov    0x30(%rsp),%rdx
    7d5e:	48 8b 4c 24 38       	mov    0x38(%rsp),%rcx
    7d63:	4c 8b 44 24 40       	mov    0x40(%rsp),%r8
    7d68:	4c 8b 4c 24 48       	mov    0x48(%rsp),%r9
    7d6d:	0f 10 44 24 50       	movups 0x50(%rsp),%xmm0
    7d72:	48 8b 44 24 60       	mov    0x60(%rsp),%rax
    7d77:	48 89 44 24 10       	mov    %rax,0x10(%rsp)
    7d7c:	0f 11 04 24          	movups %xmm0,(%rsp)
    7d80:	e8 eb f9 ff ff       	callq  7770 <_ZN18coroutine_overhead15matrix_dot_plus17hc8edb6c01fcb43b6E>
    7d85:	48 85 c0             	test   %rax,%rax
    7d88:	0f 85 46 03 00 00    	jne    80d4 <_ZN18coroutine_overhead4main17hfcb01b1936cc4c3dE+0x824>
    7d8e:	48 8b 7c 24 20       	mov    0x20(%rsp),%rdi
    7d93:	48 8b 74 24 28       	mov    0x28(%rsp),%rsi
    7d98:	48 8b 54 24 30       	mov    0x30(%rsp),%rdx
    7d9d:	48 8b 4c 24 38       	mov    0x38(%rsp),%rcx
    7da2:	4c 8b 44 24 40       	mov    0x40(%rsp),%r8
    7da7:	4c 8b 4c 24 48       	mov    0x48(%rsp),%r9
    7dac:	0f 10 44 24 50       	movups 0x50(%rsp),%xmm0
    7db1:	48 8b 44 24 60       	mov    0x60(%rsp),%rax
    7db6:	48 89 44 24 10       	mov    %rax,0x10(%rsp)
    7dbb:	0f 11 04 24          	movups %xmm0,(%rsp)
    7dbf:	e8 ac f9 ff ff       	callq  7770 <_ZN18coroutine_overhead15matrix_dot_plus17hc8edb6c01fcb43b6E>
    7dc4:	48 85 c0             	test   %rax,%rax
    7dc7:	0f 85 07 03 00 00    	jne    80d4 <_ZN18coroutine_overhead4main17hfcb01b1936cc4c3dE+0x824>
    7dcd:	ff 15 2d 70 24 00    	callq  *0x24702d(%rip)        # 24ee00 <_GLOBAL_OFFSET_TABLE_+0x520>
    7dd3:	48 89 c7             	mov    %rax,%rdi
    7dd6:	48 89 d6             	mov    %rdx,%rsi
    7dd9:	48 89 da             	mov    %rbx,%rdx
    7ddc:	4c 89 f9             	mov    %r15,%rcx
    7ddf:	ff 15 33 71 24 00    	callq  *0x247133(%rip)        # 24ef18 <_GLOBAL_OFFSET_TABLE_+0x638>
    7de5:	48 89 c7             	mov    %rax,%rdi
    7de8:	48 89 d6             	mov    %rdx,%rsi
    7deb:	ba 05 00 00 00       	mov    $0x5,%edx
    7df0:	ff 15 12 6d 24 00    	callq  *0x246d12(%rip)        # 24eb08 <_GLOBAL_OFFSET_TABLE_+0x228>
    7df6:	48 89 84 24 a8 00 00 	mov    %rax,0xa8(%rsp)
    7dfd:	00 
    7dfe:	48 89 94 24 b0 00 00 	mov    %rdx,0xb0(%rsp)
    7e05:	00 
    7e06:	48 8d 84 24 98 00 00 	lea    0x98(%rsp),%rax
    7e0d:	00 
    7e0e:	48 89 44 24 68       	mov    %rax,0x68(%rsp)
    7e13:	48 8d 05 d6 04 00 00 	lea    0x4d6(%rip),%rax        # 82f0 <_ZN44_$LT$$RF$T$u20$as$u20$core..fmt..Display$GT$3fmt17he15f5438d4b7f0ccE>
    7e1a:	48 89 44 24 70       	mov    %rax,0x70(%rsp)
    7e1f:	48 8d 05 da 60 03 00 	lea    0x360da(%rip),%rax        # 3df00 <_fini+0x7c>
    7e26:	48 89 44 24 78       	mov    %rax,0x78(%rsp)
    7e2b:	4c 89 b4 24 80 00 00 	mov    %r14,0x80(%rsp)
    7e32:	00 
    7e33:	4c 89 a4 24 88 00 00 	mov    %r12,0x88(%rsp)
    7e3a:	00 
    7e3b:	4c 89 ac 24 90 00 00 	mov    %r13,0x90(%rsp)
    7e42:	00 
    7e43:	48 89 ac 24 b8 00 00 	mov    %rbp,0xb8(%rsp)
    7e4a:	00 
    7e4b:	48 c7 84 24 c0 00 00 	movq   $0x4,0xc0(%rsp)
    7e52:	00 04 00 00 00 
    7e57:	48 c7 84 24 c8 00 00 	movq   $0x0,0xc8(%rsp)
    7e5e:	00 00 00 00 00 
    7e63:	48 8d 44 24 68       	lea    0x68(%rsp),%rax
    7e68:	48 89 84 24 d8 00 00 	mov    %rax,0xd8(%rsp)
    7e6f:	00 
    7e70:	48 c7 84 24 e0 00 00 	movq   $0x3,0xe0(%rsp)
    7e77:	00 03 00 00 00 
    7e7c:	48 8d bc 24 b8 00 00 	lea    0xb8(%rsp),%rdi
    7e83:	00 
    7e84:	ff 15 1e 6d 24 00    	callq  *0x246d1e(%rip)        # 24eba8 <_GLOBAL_OFFSET_TABLE_+0x2c8>
    7e8a:	48 8d 05 8a 60 03 00 	lea    0x3608a(%rip),%rax        # 3df1b <_fini+0x97>
    7e91:	48 89 84 24 98 00 00 	mov    %rax,0x98(%rsp)
    7e98:	00 
    7e99:	48 c7 84 24 a0 00 00 	movq   $0x4,0xa0(%rsp)
    7ea0:	00 04 00 00 00 
    7ea5:	ff 15 55 6f 24 00    	callq  *0x246f55(%rip)        # 24ee00 <_GLOBAL_OFFSET_TABLE_+0x520>
    7eab:	48 89 c3             	mov    %rax,%rbx
    7eae:	49 89 d7             	mov    %rdx,%r15
    7eb1:	48 8d 7c 24 20       	lea    0x20(%rsp),%rdi
    7eb6:	48 8d 74 24 38       	lea    0x38(%rsp),%rsi
    7ebb:	48 8d 54 24 50       	lea    0x50(%rsp),%rdx
    7ec0:	e8 8b 04 00 00       	callq  8350 <_ZN18coroutine_overhead8function15matrix_dot_plus17hb38789a43bd63f57E>
    7ec5:	48 85 c0             	test   %rax,%rax
    7ec8:	0f 85 3e 02 00 00    	jne    810c <_ZN18coroutine_overhead4main17hfcb01b1936cc4c3dE+0x85c>
    7ece:	48 8d 7c 24 20       	lea    0x20(%rsp),%rdi
    7ed3:	48 8d 74 24 38       	lea    0x38(%rsp),%rsi
    7ed8:	48 8d 54 24 50       	lea    0x50(%rsp),%rdx
    7edd:	e8 6e 04 00 00       	callq  8350 <_ZN18coroutine_overhead8function15matrix_dot_plus17hb38789a43bd63f57E>
    7ee2:	48 85 c0             	test   %rax,%rax
    7ee5:	0f 85 21 02 00 00    	jne    810c <_ZN18coroutine_overhead4main17hfcb01b1936cc4c3dE+0x85c>
    7eeb:	48 8d 7c 24 20       	lea    0x20(%rsp),%rdi
    7ef0:	48 8d 74 24 38       	lea    0x38(%rsp),%rsi
    7ef5:	48 8d 54 24 50       	lea    0x50(%rsp),%rdx
    7efa:	e8 51 04 00 00       	callq  8350 <_ZN18coroutine_overhead8function15matrix_dot_plus17hb38789a43bd63f57E>
    7eff:	48 85 c0             	test   %rax,%rax
    7f02:	0f 85 04 02 00 00    	jne    810c <_ZN18coroutine_overhead4main17hfcb01b1936cc4c3dE+0x85c>
    7f08:	48 8d 7c 24 20       	lea    0x20(%rsp),%rdi
    7f0d:	48 8d 74 24 38       	lea    0x38(%rsp),%rsi
    7f12:	48 8d 54 24 50       	lea    0x50(%rsp),%rdx
    7f17:	e8 34 04 00 00       	callq  8350 <_ZN18coroutine_overhead8function15matrix_dot_plus17hb38789a43bd63f57E>
    7f1c:	48 85 c0             	test   %rax,%rax
    7f1f:	0f 85 e7 01 00 00    	jne    810c <_ZN18coroutine_overhead4main17hfcb01b1936cc4c3dE+0x85c>
    7f25:	48 8d 7c 24 20       	lea    0x20(%rsp),%rdi
    7f2a:	48 8d 74 24 38       	lea    0x38(%rsp),%rsi
    7f2f:	48 8d 54 24 50       	lea    0x50(%rsp),%rdx
    7f34:	e8 17 04 00 00       	callq  8350 <_ZN18coroutine_overhead8function15matrix_dot_plus17hb38789a43bd63f57E>
    7f39:	48 85 c0             	test   %rax,%rax
    7f3c:	0f 85 ca 01 00 00    	jne    810c <_ZN18coroutine_overhead4main17hfcb01b1936cc4c3dE+0x85c>
    7f42:	ff 15 b8 6e 24 00    	callq  *0x246eb8(%rip)        # 24ee00 <_GLOBAL_OFFSET_TABLE_+0x520>
    7f48:	48 89 c7             	mov    %rax,%rdi
    7f4b:	48 89 d6             	mov    %rdx,%rsi
    7f4e:	48 89 da             	mov    %rbx,%rdx
    7f51:	4c 89 f9             	mov    %r15,%rcx
    7f54:	ff 15 be 6f 24 00    	callq  *0x246fbe(%rip)        # 24ef18 <_GLOBAL_OFFSET_TABLE_+0x638>
    7f5a:	48 89 c7             	mov    %rax,%rdi
    7f5d:	48 89 d6             	mov    %rdx,%rsi
    7f60:	ba 05 00 00 00       	mov    $0x5,%edx
    7f65:	ff 15 9d 6b 24 00    	callq  *0x246b9d(%rip)        # 24eb08 <_GLOBAL_OFFSET_TABLE_+0x228>
    7f6b:	48 89 84 24 a8 00 00 	mov    %rax,0xa8(%rsp)
    7f72:	00 
    7f73:	48 89 94 24 b0 00 00 	mov    %rdx,0xb0(%rsp)
    7f7a:	00 
    7f7b:	48 8d 84 24 98 00 00 	lea    0x98(%rsp),%rax
    7f82:	00 
    7f83:	48 89 44 24 68       	mov    %rax,0x68(%rsp)
    7f88:	48 8d 05 61 03 00 00 	lea    0x361(%rip),%rax        # 82f0 <_ZN44_$LT$$RF$T$u20$as$u20$core..fmt..Display$GT$3fmt17he15f5438d4b7f0ccE>
    7f8f:	48 89 44 24 70       	mov    %rax,0x70(%rsp)
    7f94:	48 8d 05 65 5f 03 00 	lea    0x35f65(%rip),%rax        # 3df00 <_fini+0x7c>
    7f9b:	48 89 44 24 78       	mov    %rax,0x78(%rsp)
    7fa0:	4c 89 b4 24 80 00 00 	mov    %r14,0x80(%rsp)
    7fa7:	00 
    7fa8:	4c 89 a4 24 88 00 00 	mov    %r12,0x88(%rsp)
    7faf:	00 
    7fb0:	4c 89 ac 24 90 00 00 	mov    %r13,0x90(%rsp)
    7fb7:	00 
    7fb8:	48 89 ac 24 b8 00 00 	mov    %rbp,0xb8(%rsp)
    7fbf:	00 
    7fc0:	48 c7 84 24 c0 00 00 	movq   $0x4,0xc0(%rsp)
    7fc7:	00 04 00 00 00 
    7fcc:	48 c7 84 24 c8 00 00 	movq   $0x0,0xc8(%rsp)
    7fd3:	00 00 00 00 00 
    7fd8:	48 8d 44 24 68       	lea    0x68(%rsp),%rax
    7fdd:	48 89 84 24 d8 00 00 	mov    %rax,0xd8(%rsp)
    7fe4:	00 
    7fe5:	48 c7 84 24 e0 00 00 	movq   $0x3,0xe0(%rsp)
    7fec:	00 03 00 00 00 
    7ff1:	48 8d bc 24 b8 00 00 	lea    0xb8(%rsp),%rdi
    7ff8:	00 
    7ff9:	ff 15 a9 6b 24 00    	callq  *0x246ba9(%rip)        # 24eba8 <_GLOBAL_OFFSET_TABLE_+0x2c8>
    7fff:	48 8b 74 24 58       	mov    0x58(%rsp),%rsi
    8004:	48 c1 e6 03          	shl    $0x3,%rsi
    8008:	48 85 f6             	test   %rsi,%rsi
    800b:	74 10                	je     801d <_ZN18coroutine_overhead4main17hfcb01b1936cc4c3dE+0x76d>
    800d:	48 8b 7c 24 50       	mov    0x50(%rsp),%rdi
    8012:	ba 08 00 00 00       	mov    $0x8,%edx
    8017:	ff 15 03 6b 24 00    	callq  *0x246b03(%rip)        # 24eb20 <_GLOBAL_OFFSET_TABLE_+0x240>
    801d:	48 8b 74 24 40       	mov    0x40(%rsp),%rsi
    8022:	48 c1 e6 03          	shl    $0x3,%rsi
    8026:	48 85 f6             	test   %rsi,%rsi
    8029:	74 10                	je     803b <_ZN18coroutine_overhead4main17hfcb01b1936cc4c3dE+0x78b>
    802b:	48 8b 7c 24 38       	mov    0x38(%rsp),%rdi
    8030:	ba 08 00 00 00       	mov    $0x8,%edx
    8035:	ff 15 e5 6a 24 00    	callq  *0x246ae5(%rip)        # 24eb20 <_GLOBAL_OFFSET_TABLE_+0x240>
    803b:	48 8b 74 24 28       	mov    0x28(%rsp),%rsi
    8040:	48 c1 e6 03          	shl    $0x3,%rsi
    8044:	48 85 f6             	test   %rsi,%rsi
    8047:	74 10                	je     8059 <_ZN18coroutine_overhead4main17hfcb01b1936cc4c3dE+0x7a9>
    8049:	48 8b 7c 24 20       	mov    0x20(%rsp),%rdi
    804e:	ba 08 00 00 00       	mov    $0x8,%edx
    8053:	ff 15 c7 6a 24 00    	callq  *0x246ac7(%rip)        # 24eb20 <_GLOBAL_OFFSET_TABLE_+0x240>
    8059:	48 81 c4 e8 00 00 00 	add    $0xe8,%rsp
    8060:	5b                   	pop    %rbx
    8061:	41 5c                	pop    %r12
    8063:	41 5d                	pop    %r13
    8065:	41 5e                	pop    %r14
    8067:	41 5f                	pop    %r15
    8069:	5d                   	pop    %rbp
    806a:	c3                   	retq   
    806b:	48 89 0d 9e 6f 24 00 	mov    %rcx,0x246f9e(%rip)        # 24f010 <_ZN18coroutine_overhead6random4seed17h36b690121134c00bE.0>
    8072:	48 8d 15 37 3e 24 00 	lea    0x243e37(%rip),%rdx        # 24beb0 <anon.301c5d4cbd7f8c5b61df91e2cad8fefb.0.llvm.13767110465242657722+0x78>
    8079:	ff 15 e9 6d 24 00    	callq  *0x246de9(%rip)        # 24ee68 <_GLOBAL_OFFSET_TABLE_+0x588>
    807f:	e9 a3 01 00 00       	jmpq   8227 <_ZN18coroutine_overhead4main17hfcb01b1936cc4c3dE+0x977>
    8084:	48 89 15 85 6f 24 00 	mov    %rdx,0x246f85(%rip)        # 24f010 <_ZN18coroutine_overhead6random4seed17h36b690121134c00bE.0>
    808b:	48 8d 15 1e 3e 24 00 	lea    0x243e1e(%rip),%rdx        # 24beb0 <anon.301c5d4cbd7f8c5b61df91e2cad8fefb.0.llvm.13767110465242657722+0x78>
    8092:	4c 89 c6             	mov    %r8,%rsi
    8095:	ff 15 cd 6d 24 00    	callq  *0x246dcd(%rip)        # 24ee68 <_GLOBAL_OFFSET_TABLE_+0x588>
    809b:	e9 87 01 00 00       	jmpq   8227 <_ZN18coroutine_overhead4main17hfcb01b1936cc4c3dE+0x977>
    80a0:	48 89 44 24 68       	mov    %rax,0x68(%rsp)
    80a5:	48 89 54 24 70       	mov    %rdx,0x70(%rsp)
    80aa:	48 8d 3d 6e 5e 03 00 	lea    0x35e6e(%rip),%rdi        # 3df1f <_fini+0x9b>
    80b1:	48 8d 0d e0 3e 24 00 	lea    0x243ee0(%rip),%rcx        # 24bf98 <anon.301c5d4cbd7f8c5b61df91e2cad8fefb.0.llvm.13767110465242657722+0x160>
    80b8:	4c 8d 05 91 3e 24 00 	lea    0x243e91(%rip),%r8        # 24bf50 <anon.301c5d4cbd7f8c5b61df91e2cad8fefb.0.llvm.13767110465242657722+0x118>
    80bf:	48 8d 54 24 68       	lea    0x68(%rsp),%rdx
    80c4:	be 2b 00 00 00       	mov    $0x2b,%esi
    80c9:	ff 15 f1 6c 24 00    	callq  *0x246cf1(%rip)        # 24edc0 <_GLOBAL_OFFSET_TABLE_+0x4e0>
    80cf:	e9 53 01 00 00       	jmpq   8227 <_ZN18coroutine_overhead4main17hfcb01b1936cc4c3dE+0x977>
    80d4:	48 89 44 24 68       	mov    %rax,0x68(%rsp)
    80d9:	48 c7 44 24 70 12 00 	movq   $0x12,0x70(%rsp)
    80e0:	00 00 
    80e2:	48 8d 3d 36 5e 03 00 	lea    0x35e36(%rip),%rdi        # 3df1f <_fini+0x9b>
    80e9:	48 8d 0d a8 3e 24 00 	lea    0x243ea8(%rip),%rcx        # 24bf98 <anon.301c5d4cbd7f8c5b61df91e2cad8fefb.0.llvm.13767110465242657722+0x160>
    80f0:	4c 8d 05 71 3e 24 00 	lea    0x243e71(%rip),%r8        # 24bf68 <anon.301c5d4cbd7f8c5b61df91e2cad8fefb.0.llvm.13767110465242657722+0x130>
    80f7:	48 8d 54 24 68       	lea    0x68(%rsp),%rdx
    80fc:	be 2b 00 00 00       	mov    $0x2b,%esi
    8101:	ff 15 b9 6c 24 00    	callq  *0x246cb9(%rip)        # 24edc0 <_GLOBAL_OFFSET_TABLE_+0x4e0>
    8107:	e9 1b 01 00 00       	jmpq   8227 <_ZN18coroutine_overhead4main17hfcb01b1936cc4c3dE+0x977>
    810c:	48 89 44 24 68       	mov    %rax,0x68(%rsp)
    8111:	48 89 54 24 70       	mov    %rdx,0x70(%rsp)
    8116:	48 8d 3d 02 5e 03 00 	lea    0x35e02(%rip),%rdi        # 3df1f <_fini+0x9b>
    811d:	48 8d 0d 74 3e 24 00 	lea    0x243e74(%rip),%rcx        # 24bf98 <anon.301c5d4cbd7f8c5b61df91e2cad8fefb.0.llvm.13767110465242657722+0x160>
    8124:	4c 8d 05 55 3e 24 00 	lea    0x243e55(%rip),%r8        # 24bf80 <anon.301c5d4cbd7f8c5b61df91e2cad8fefb.0.llvm.13767110465242657722+0x148>
    812b:	48 8d 54 24 68       	lea    0x68(%rsp),%rdx
    8130:	be 2b 00 00 00       	mov    $0x2b,%esi
    8135:	ff 15 85 6c 24 00    	callq  *0x246c85(%rip)        # 24edc0 <_GLOBAL_OFFSET_TABLE_+0x4e0>
    813b:	e9 e7 00 00 00       	jmpq   8227 <_ZN18coroutine_overhead4main17hfcb01b1936cc4c3dE+0x977>
    8140:	bf 00 12 7a 00       	mov    $0x7a1200,%edi
    8145:	be 08 00 00 00       	mov    $0x8,%esi
    814a:	ff 15 a0 6c 24 00    	callq  *0x246ca0(%rip)        # 24edf0 <_GLOBAL_OFFSET_TABLE_+0x510>
    8150:	0f 0b                	ud2    
    8152:	bf 00 12 7a 00       	mov    $0x7a1200,%edi
    8157:	be 08 00 00 00       	mov    $0x8,%esi
    815c:	ff 15 8e 6c 24 00    	callq  *0x246c8e(%rip)        # 24edf0 <_GLOBAL_OFFSET_TABLE_+0x510>
    8162:	e9 c0 00 00 00       	jmpq   8227 <_ZN18coroutine_overhead4main17hfcb01b1936cc4c3dE+0x977>
    8167:	bf 00 12 7a 00       	mov    $0x7a1200,%edi
    816c:	be 08 00 00 00       	mov    $0x8,%esi
    8171:	ff 15 79 6c 24 00    	callq  *0x246c79(%rip)        # 24edf0 <_GLOBAL_OFFSET_TABLE_+0x510>
    8177:	e9 ab 00 00 00       	jmpq   8227 <_ZN18coroutine_overhead4main17hfcb01b1936cc4c3dE+0x977>
    817c:	48 8d 05 5d 5d 03 00 	lea    0x35d5d(%rip),%rax        # 3dee0 <_fini+0x5c>
    8183:	48 89 44 24 68       	mov    %rax,0x68(%rsp)
    8188:	48 c7 44 24 70 18 00 	movq   $0x18,0x70(%rsp)
    818f:	00 00 
    8191:	48 8d 3d 87 5d 03 00 	lea    0x35d87(%rip),%rdi        # 3df1f <_fini+0x9b>
    8198:	48 8d 0d f9 3d 24 00 	lea    0x243df9(%rip),%rcx        # 24bf98 <anon.301c5d4cbd7f8c5b61df91e2cad8fefb.0.llvm.13767110465242657722+0x160>
    819f:	4c 8d 05 62 3d 24 00 	lea    0x243d62(%rip),%r8        # 24bf08 <anon.301c5d4cbd7f8c5b61df91e2cad8fefb.0.llvm.13767110465242657722+0xd0>
    81a6:	48 8d 54 24 68       	lea    0x68(%rsp),%rdx
    81ab:	be 2b 00 00 00       	mov    $0x2b,%esi
    81b0:	ff 15 0a 6c 24 00    	callq  *0x246c0a(%rip)        # 24edc0 <_GLOBAL_OFFSET_TABLE_+0x4e0>
    81b6:	eb 6f                	jmp    8227 <_ZN18coroutine_overhead4main17hfcb01b1936cc4c3dE+0x977>
    81b8:	48 8d 05 21 5d 03 00 	lea    0x35d21(%rip),%rax        # 3dee0 <_fini+0x5c>
    81bf:	48 89 44 24 68       	mov    %rax,0x68(%rsp)
    81c4:	48 c7 44 24 70 18 00 	movq   $0x18,0x70(%rsp)
    81cb:	00 00 
    81cd:	48 8d 3d 4b 5d 03 00 	lea    0x35d4b(%rip),%rdi        # 3df1f <_fini+0x9b>
    81d4:	48 8d 0d bd 3d 24 00 	lea    0x243dbd(%rip),%rcx        # 24bf98 <anon.301c5d4cbd7f8c5b61df91e2cad8fefb.0.llvm.13767110465242657722+0x160>
    81db:	4c 8d 05 3e 3d 24 00 	lea    0x243d3e(%rip),%r8        # 24bf20 <anon.301c5d4cbd7f8c5b61df91e2cad8fefb.0.llvm.13767110465242657722+0xe8>
    81e2:	48 8d 54 24 68       	lea    0x68(%rsp),%rdx
    81e7:	be 2b 00 00 00       	mov    $0x2b,%esi
    81ec:	ff 15 ce 6b 24 00    	callq  *0x246bce(%rip)        # 24edc0 <_GLOBAL_OFFSET_TABLE_+0x4e0>
    81f2:	eb 33                	jmp    8227 <_ZN18coroutine_overhead4main17hfcb01b1936cc4c3dE+0x977>
    81f4:	48 89 44 24 68       	mov    %rax,0x68(%rsp)
    81f9:	48 c7 44 24 70 12 00 	movq   $0x12,0x70(%rsp)
    8200:	00 00 
    8202:	48 8d 3d 16 5d 03 00 	lea    0x35d16(%rip),%rdi        # 3df1f <_fini+0x9b>
    8209:	48 8d 0d 88 3d 24 00 	lea    0x243d88(%rip),%rcx        # 24bf98 <anon.301c5d4cbd7f8c5b61df91e2cad8fefb.0.llvm.13767110465242657722+0x160>
    8210:	4c 8d 05 21 3d 24 00 	lea    0x243d21(%rip),%r8        # 24bf38 <anon.301c5d4cbd7f8c5b61df91e2cad8fefb.0.llvm.13767110465242657722+0x100>
    8217:	48 8d 54 24 68       	lea    0x68(%rsp),%rdx
    821c:	be 2b 00 00 00       	mov    $0x2b,%esi
    8221:	ff 15 99 6b 24 00    	callq  *0x246b99(%rip)        # 24edc0 <_GLOBAL_OFFSET_TABLE_+0x4e0>
    8227:	0f 0b                	ud2    
    8229:	48 89 c3             	mov    %rax,%rbx
    822c:	eb 26                	jmp    8254 <_ZN18coroutine_overhead4main17hfcb01b1936cc4c3dE+0x9a4>
    822e:	48 89 c3             	mov    %rax,%rbx
    8231:	eb 3f                	jmp    8272 <_ZN18coroutine_overhead4main17hfcb01b1936cc4c3dE+0x9c2>
    8233:	48 89 c3             	mov    %rax,%rbx
    8236:	48 8b 74 24 58       	mov    0x58(%rsp),%rsi
    823b:	48 c1 e6 03          	shl    $0x3,%rsi
    823f:	48 85 f6             	test   %rsi,%rsi
    8242:	74 10                	je     8254 <_ZN18coroutine_overhead4main17hfcb01b1936cc4c3dE+0x9a4>
    8244:	48 8b 7c 24 50       	mov    0x50(%rsp),%rdi
    8249:	ba 08 00 00 00       	mov    $0x8,%edx
    824e:	ff 15 cc 68 24 00    	callq  *0x2468cc(%rip)        # 24eb20 <_GLOBAL_OFFSET_TABLE_+0x240>
    8254:	48 8b 74 24 40       	mov    0x40(%rsp),%rsi
    8259:	48 c1 e6 03          	shl    $0x3,%rsi
    825d:	48 85 f6             	test   %rsi,%rsi
    8260:	74 10                	je     8272 <_ZN18coroutine_overhead4main17hfcb01b1936cc4c3dE+0x9c2>
    8262:	48 8b 7c 24 38       	mov    0x38(%rsp),%rdi
    8267:	ba 08 00 00 00       	mov    $0x8,%edx
    826c:	ff 15 ae 68 24 00    	callq  *0x2468ae(%rip)        # 24eb20 <_GLOBAL_OFFSET_TABLE_+0x240>
    8272:	48 8b 74 24 28       	mov    0x28(%rsp),%rsi
    8277:	48 c1 e6 03          	shl    $0x3,%rsi
    827b:	48 85 f6             	test   %rsi,%rsi
    827e:	74 10                	je     8290 <_ZN18coroutine_overhead4main17hfcb01b1936cc4c3dE+0x9e0>
    8280:	48 8b 7c 24 20       	mov    0x20(%rsp),%rdi
    8285:	ba 08 00 00 00       	mov    $0x8,%edx
    828a:	ff 15 90 68 24 00    	callq  *0x246890(%rip)        # 24eb20 <_GLOBAL_OFFSET_TABLE_+0x240>
    8290:	48 89 df             	mov    %rbx,%rdi
    8293:	e8 18 d8 ff ff       	callq  5ab0 <_Unwind_Resume@plt>
    8298:	0f 0b                	ud2    
    829a:	66 0f 1f 44 00 00    	nopw   0x0(%rax,%rax,1)

00000000000082a0 <main>:
    82a0:	50                   	push   %rax
    82a1:	48 89 f1             	mov    %rsi,%rcx
    82a4:	48 63 d7             	movslq %edi,%rdx
    82a7:	48 8d 05 02 f6 ff ff 	lea    -0x9fe(%rip),%rax        # 78b0 <_ZN18coroutine_overhead4main17hfcb01b1936cc4c3dE>
    82ae:	48 89 04 24          	mov    %rax,(%rsp)
    82b2:	48 8d 35 7f 3b 24 00 	lea    0x243b7f(%rip),%rsi        # 24be38 <anon.301c5d4cbd7f8c5b61df91e2cad8fefb.0.llvm.13767110465242657722>
    82b9:	48 89 e7             	mov    %rsp,%rdi
    82bc:	ff 15 3e 6c 24 00    	callq  *0x246c3e(%rip)        # 24ef00 <_GLOBAL_OFFSET_TABLE_+0x620>
    82c2:	59                   	pop    %rcx
    82c3:	c3                   	retq   
    82c4:	66 2e 0f 1f 84 00 00 	nopw   %cs:0x0(%rax,%rax,1)
    82cb:	00 00 00 
    82ce:	66 90                	xchg   %ax,%ax

00000000000082d0 <_ZN42_$LT$$RF$T$u20$as$u20$core..fmt..Debug$GT$3fmt17h932c0873a4691349E>:
    82d0:	48 89 f2             	mov    %rsi,%rdx
    82d3:	48 8b 07             	mov    (%rdi),%rax
    82d6:	48 8b 77 08          	mov    0x8(%rdi),%rsi
    82da:	48 89 c7             	mov    %rax,%rdi
    82dd:	ff 25 75 69 24 00    	jmpq   *0x246975(%rip)        # 24ec58 <_GLOBAL_OFFSET_TABLE_+0x378>
    82e3:	66 2e 0f 1f 84 00 00 	nopw   %cs:0x0(%rax,%rax,1)
    82ea:	00 00 00 
    82ed:	0f 1f 00             	nopl   (%rax)

00000000000082f0 <_ZN44_$LT$$RF$T$u20$as$u20$core..fmt..Display$GT$3fmt17he15f5438d4b7f0ccE>:
    82f0:	48 89 f2             	mov    %rsi,%rdx
    82f3:	48 8b 07             	mov    (%rdi),%rax
    82f6:	48 8b 77 08          	mov    0x8(%rdi),%rsi
    82fa:	48 89 c7             	mov    %rax,%rdi
    82fd:	ff 25 b5 69 24 00    	jmpq   *0x2469b5(%rip)        # 24ecb8 <_GLOBAL_OFFSET_TABLE_+0x3d8>
    8303:	66 2e 0f 1f 84 00 00 	nopw   %cs:0x0(%rax,%rax,1)
    830a:	00 00 00 
    830d:	0f 1f 00             	nopl   (%rax)

0000000000008310 <_ZN3std10sys_common9backtrace28__rust_begin_short_backtrace17h20570bf2d80a8cfcE>:
    8310:	50                   	push   %rax
    8311:	ff d7                	callq  *%rdi
    8313:	58                   	pop    %rax
    8314:	c3                   	retq   
    8315:	66 2e 0f 1f 84 00 00 	nopw   %cs:0x0(%rax,%rax,1)
    831c:	00 00 00 
    831f:	90                   	nop

0000000000008320 <_ZN77_$LT$alloc..raw_vec..RawVec$LT$T$C$A$GT$$u20$as$u20$core..ops..drop..Drop$GT$4drop17hca3c503b05c5ef6cE>:
    8320:	48 8b 77 08          	mov    0x8(%rdi),%rsi
    8324:	48 85 f6             	test   %rsi,%rsi
    8327:	74 17                	je     8340 <_ZN77_$LT$alloc..raw_vec..RawVec$LT$T$C$A$GT$$u20$as$u20$core..ops..drop..Drop$GT$4drop17hca3c503b05c5ef6cE+0x20>
    8329:	48 c1 e6 03          	shl    $0x3,%rsi
    832d:	48 85 f6             	test   %rsi,%rsi
    8330:	74 0e                	je     8340 <_ZN77_$LT$alloc..raw_vec..RawVec$LT$T$C$A$GT$$u20$as$u20$core..ops..drop..Drop$GT$4drop17hca3c503b05c5ef6cE+0x20>
    8332:	48 8b 3f             	mov    (%rdi),%rdi
    8335:	ba 08 00 00 00       	mov    $0x8,%edx
    833a:	ff 25 e0 67 24 00    	jmpq   *0x2467e0(%rip)        # 24eb20 <_GLOBAL_OFFSET_TABLE_+0x240>
    8340:	c3                   	retq   
    8341:	66 2e 0f 1f 84 00 00 	nopw   %cs:0x0(%rax,%rax,1)
    8348:	00 00 00 
    834b:	0f 1f 44 00 00       	nopl   0x0(%rax,%rax,1)

0000000000008350 <_ZN18coroutine_overhead8function15matrix_dot_plus17hb38789a43bd63f57E>:
    8350:	41 57                	push   %r15
    8352:	41 56                	push   %r14
    8354:	41 55                	push   %r13
    8356:	41 54                	push   %r12
    8358:	53                   	push   %rbx
    8359:	48 83 ec 10          	sub    $0x10,%rsp
    835d:	49 89 d7             	mov    %rdx,%r15
    8360:	49 89 f5             	mov    %rsi,%r13
    8363:	48 89 fb             	mov    %rdi,%rbx
    8366:	4c 8b 77 10          	mov    0x10(%rdi),%r14
    836a:	48 8b 76 10          	mov    0x10(%rsi),%rsi
    836e:	48 8b 52 10          	mov    0x10(%rdx),%rdx
    8372:	4c 89 f7             	mov    %r14,%rdi
    8375:	e8 f6 02 00 00       	callq  8670 <_ZN18coroutine_overhead8function10size_check17h7504ebb1e9afbf52E>
    837a:	49 89 c4             	mov    %rax,%r12
    837d:	48 85 c0             	test   %rax,%rax
    8380:	75 22                	jne    83a4 <_ZN18coroutine_overhead8function15matrix_dot_plus17hb38789a43bd63f57E+0x54>
    8382:	48 8b 33             	mov    (%rbx),%rsi
    8385:	48 8b 53 08          	mov    0x8(%rbx),%rdx
    8389:	49 8b 4d 00          	mov    0x0(%r13),%rcx
    838d:	4d 8b 45 08          	mov    0x8(%r13),%r8
    8391:	4d 8b 0f             	mov    (%r15),%r9
    8394:	49 8b 47 08          	mov    0x8(%r15),%rax
    8398:	48 89 04 24          	mov    %rax,(%rsp)
    839c:	4c 89 f7             	mov    %r14,%rdi
    839f:	e8 2c 02 00 00       	callq  85d0 <_ZN18coroutine_overhead8function2l117hbffb2ab7e5b614d0E>
    83a4:	ba 12 00 00 00       	mov    $0x12,%edx
    83a9:	4c 89 e0             	mov    %r12,%rax
    83ac:	48 83 c4 10          	add    $0x10,%rsp
    83b0:	5b                   	pop    %rbx
    83b1:	41 5c                	pop    %r12
    83b3:	41 5d                	pop    %r13
    83b5:	41 5e                	pop    %r14
    83b7:	41 5f                	pop    %r15
    83b9:	c3                   	retq   
    83ba:	66 0f 1f 44 00 00    	nopw   0x0(%rax,%rax,1)

00000000000083c0 <_ZN18coroutine_overhead8function3add17hd1309d624f2190bfE>:
    83c0:	48 8d 04 37          	lea    (%rdi,%rsi,1),%rax
    83c4:	c3                   	retq   
    83c5:	66 2e 0f 1f 84 00 00 	nopw   %cs:0x0(%rax,%rax,1)
    83cc:	00 00 00 
    83cf:	90                   	nop

00000000000083d0 <_ZN18coroutine_overhead8function5equal17hd27694547d3aab48E>:
    83d0:	48 39 f7             	cmp    %rsi,%rdi
    83d3:	0f 94 c0             	sete   %al
    83d6:	c3                   	retq   
    83d7:	66 0f 1f 84 00 00 00 	nopw   0x0(%rax,%rax,1)
    83de:	00 00 

00000000000083e0 <_ZN18coroutine_overhead8function5times17h2bc9396a06ba8681E>:
    83e0:	48 89 f8             	mov    %rdi,%rax
    83e3:	48 0f af c6          	imul   %rsi,%rax
    83e7:	c3                   	retq   
    83e8:	0f 1f 84 00 00 00 00 	nopl   0x0(%rax,%rax,1)
    83ef:	00 

00000000000083f0 <_ZN18coroutine_overhead8function8overflow17h9b872327ca48db6dE>:
    83f0:	0f b7 c7             	movzwl %di,%eax
    83f3:	c3                   	retq   
    83f4:	66 2e 0f 1f 84 00 00 	nopw   %cs:0x0(%rax,%rax,1)
    83fb:	00 00 00 
    83fe:	66 90                	xchg   %ax,%ax

0000000000008400 <_ZN18coroutine_overhead8function2l317hd95557563afcb6cbE>:
    8400:	55                   	push   %rbp
    8401:	41 57                	push   %r15
    8403:	41 56                	push   %r14
    8405:	41 55                	push   %r13
    8407:	41 54                	push   %r12
    8409:	53                   	push   %rbx
    840a:	48 83 ec 28          	sub    $0x28,%rsp
    840e:	4c 89 4c 24 20       	mov    %r9,0x20(%rsp)
    8413:	4c 89 44 24 08       	mov    %r8,0x8(%rsp)
    8418:	48 89 4c 24 18       	mov    %rcx,0x18(%rsp)
    841d:	49 89 d5             	mov    %rdx,%r13
    8420:	49 89 f7             	mov    %rsi,%r15
    8423:	48 89 fb             	mov    %rdi,%rbx
    8426:	4c 0f af ff          	imul   %rdi,%r15
    842a:	31 ed                	xor    %ebp,%ebp
    842c:	49 89 fe             	mov    %rdi,%r14
    842f:	4c 89 3c 24          	mov    %r15,(%rsp)
    8433:	48 89 54 24 10       	mov    %rdx,0x10(%rsp)
    8438:	0f 1f 84 00 00 00 00 	nopl   0x0(%rax,%rax,1)
    843f:	00 
    8440:	4c 3b 7c 24 08       	cmp    0x8(%rsp),%r15
    8445:	0f 83 9a 00 00 00    	jae    84e5 <_ZN18coroutine_overhead8function2l317hd95557563afcb6cbE+0xe5>
    844b:	4c 3b 6c 24 60       	cmp    0x60(%rsp),%r13
    8450:	0f 83 ae 00 00 00    	jae    8504 <_ZN18coroutine_overhead8function2l317hd95557563afcb6cbE+0x104>
    8456:	48 8b 44 24 18       	mov    0x18(%rsp),%rax
    845b:	4a 8b 3c f8          	mov    (%rax,%r15,8),%rdi
    845f:	e8 8c ff ff ff       	callq  83f0 <_ZN18coroutine_overhead8function8overflow17h9b872327ca48db6dE>
    8464:	49 89 c4             	mov    %rax,%r12
    8467:	48 8b 44 24 20       	mov    0x20(%rsp),%rax
    846c:	4a 8b 3c e8          	mov    (%rax,%r13,8),%rdi
    8470:	e8 7b ff ff ff       	callq  83f0 <_ZN18coroutine_overhead8function8overflow17h9b872327ca48db6dE>
    8475:	4c 89 e7             	mov    %r12,%rdi
    8478:	48 89 c6             	mov    %rax,%rsi
    847b:	e8 60 ff ff ff       	callq  83e0 <_ZN18coroutine_overhead8function5times17h2bc9396a06ba8681E>
    8480:	48 89 ef             	mov    %rbp,%rdi
    8483:	48 89 c6             	mov    %rax,%rsi
    8486:	e8 35 ff ff ff       	callq  83c0 <_ZN18coroutine_overhead8function3add17hd1309d624f2190bfE>
    848b:	48 89 c5             	mov    %rax,%rbp
    848e:	49 01 dd             	add    %rbx,%r13
    8491:	49 83 c7 01          	add    $0x1,%r15
    8495:	49 83 c6 ff          	add    $0xffffffffffffffff,%r14
    8499:	75 a5                	jne    8440 <_ZN18coroutine_overhead8function2l317hd95557563afcb6cbE+0x40>
    849b:	48 8b 1c 24          	mov    (%rsp),%rbx
    849f:	48 03 5c 24 10       	add    0x10(%rsp),%rbx
    84a4:	48 8b 74 24 70       	mov    0x70(%rsp),%rsi
    84a9:	48 39 f3             	cmp    %rsi,%rbx
    84ac:	73 6d                	jae    851b <_ZN18coroutine_overhead8function2l317hd95557563afcb6cbE+0x11b>
    84ae:	4c 8b 7c 24 68       	mov    0x68(%rsp),%r15
    84b3:	49 8b 3c df          	mov    (%r15,%rbx,8),%rdi
    84b7:	e8 34 ff ff ff       	callq  83f0 <_ZN18coroutine_overhead8function8overflow17h9b872327ca48db6dE>
    84bc:	49 89 c6             	mov    %rax,%r14
    84bf:	48 89 ef             	mov    %rbp,%rdi
    84c2:	e8 29 ff ff ff       	callq  83f0 <_ZN18coroutine_overhead8function8overflow17h9b872327ca48db6dE>
    84c7:	4c 89 f7             	mov    %r14,%rdi
    84ca:	48 89 c6             	mov    %rax,%rsi
    84cd:	e8 ee fe ff ff       	callq  83c0 <_ZN18coroutine_overhead8function3add17hd1309d624f2190bfE>
    84d2:	49 89 04 df          	mov    %rax,(%r15,%rbx,8)
    84d6:	48 83 c4 28          	add    $0x28,%rsp
    84da:	5b                   	pop    %rbx
    84db:	41 5c                	pop    %r12
    84dd:	41 5d                	pop    %r13
    84df:	41 5e                	pop    %r14
    84e1:	41 5f                	pop    %r15
    84e3:	5d                   	pop    %rbp
    84e4:	c3                   	retq   
    84e5:	48 8b 3c 24          	mov    (%rsp),%rdi
    84e9:	48 8b 74 24 08       	mov    0x8(%rsp),%rsi
    84ee:	48 39 fe             	cmp    %rdi,%rsi
    84f1:	48 0f 47 fe          	cmova  %rsi,%rdi
    84f5:	48 8d 15 bc 3a 24 00 	lea    0x243abc(%rip),%rdx        # 24bfb8 <anon.301c5d4cbd7f8c5b61df91e2cad8fefb.0.llvm.13767110465242657722+0x180>
    84fc:	ff 15 66 69 24 00    	callq  *0x246966(%rip)        # 24ee68 <_GLOBAL_OFFSET_TABLE_+0x588>
    8502:	0f 0b                	ud2    
    8504:	48 8d 15 c5 3a 24 00 	lea    0x243ac5(%rip),%rdx        # 24bfd0 <anon.301c5d4cbd7f8c5b61df91e2cad8fefb.0.llvm.13767110465242657722+0x198>
    850b:	4c 89 ef             	mov    %r13,%rdi
    850e:	48 8b 74 24 60       	mov    0x60(%rsp),%rsi
    8513:	ff 15 4f 69 24 00    	callq  *0x24694f(%rip)        # 24ee68 <_GLOBAL_OFFSET_TABLE_+0x588>
    8519:	0f 0b                	ud2    
    851b:	48 8d 15 c6 3a 24 00 	lea    0x243ac6(%rip),%rdx        # 24bfe8 <anon.301c5d4cbd7f8c5b61df91e2cad8fefb.0.llvm.13767110465242657722+0x1b0>
    8522:	48 89 df             	mov    %rbx,%rdi
    8525:	ff 15 3d 69 24 00    	callq  *0x24693d(%rip)        # 24ee68 <_GLOBAL_OFFSET_TABLE_+0x588>
    852b:	0f 0b                	ud2    
    852d:	0f 1f 00             	nopl   (%rax)

0000000000008530 <_ZN18coroutine_overhead8function2l217h058d64b711177178E>:
    8530:	55                   	push   %rbp
    8531:	41 57                	push   %r15
    8533:	41 56                	push   %r14
    8535:	41 55                	push   %r13
    8537:	41 54                	push   %r12
    8539:	53                   	push   %rbx
    853a:	50                   	push   %rax
    853b:	4c 89 c8             	mov    %r9,%rax
    853e:	4d 89 c1             	mov    %r8,%r9
    8541:	49 89 c8             	mov    %rcx,%r8
    8544:	48 89 d1             	mov    %rdx,%rcx
    8547:	48 89 fd             	mov    %rdi,%rbp
    854a:	48 83 ec 08          	sub    $0x8,%rsp
    854e:	48 89 74 24 08       	mov    %rsi,0x8(%rsp)
    8553:	31 d2                	xor    %edx,%edx
    8555:	48 89 cb             	mov    %rcx,%rbx
    8558:	4d 89 c5             	mov    %r8,%r13
    855b:	4d 89 cc             	mov    %r9,%r12
    855e:	ff 74 24 50          	pushq  0x50(%rsp)
    8562:	ff 74 24 50          	pushq  0x50(%rsp)
    8566:	49 89 c7             	mov    %rax,%r15
    8569:	50                   	push   %rax
    856a:	e8 91 fe ff ff       	callq  8400 <_ZN18coroutine_overhead8function2l317hd95557563afcb6cbE>
    856f:	48 83 c4 20          	add    $0x20,%rsp
    8573:	48 83 fd 01          	cmp    $0x1,%rbp
    8577:	74 3b                	je     85b4 <_ZN18coroutine_overhead8function2l217h058d64b711177178E+0x84>
    8579:	ba 01 00 00 00       	mov    $0x1,%edx
    857e:	66 90                	xchg   %ax,%ax
    8580:	4c 8d 72 01          	lea    0x1(%rdx),%r14
    8584:	48 83 ec 08          	sub    $0x8,%rsp
    8588:	48 89 ef             	mov    %rbp,%rdi
    858b:	48 8b 74 24 08       	mov    0x8(%rsp),%rsi
    8590:	48 89 d9             	mov    %rbx,%rcx
    8593:	4d 89 e8             	mov    %r13,%r8
    8596:	4d 89 e1             	mov    %r12,%r9
    8599:	ff 74 24 50          	pushq  0x50(%rsp)
    859d:	ff 74 24 50          	pushq  0x50(%rsp)
    85a1:	41 57                	push   %r15
    85a3:	e8 58 fe ff ff       	callq  8400 <_ZN18coroutine_overhead8function2l317hd95557563afcb6cbE>
    85a8:	48 83 c4 20          	add    $0x20,%rsp
    85ac:	4c 89 f2             	mov    %r14,%rdx
    85af:	4c 39 f5             	cmp    %r14,%rbp
    85b2:	75 cc                	jne    8580 <_ZN18coroutine_overhead8function2l217h058d64b711177178E+0x50>
    85b4:	48 83 c4 08          	add    $0x8,%rsp
    85b8:	5b                   	pop    %rbx
    85b9:	41 5c                	pop    %r12
    85bb:	41 5d                	pop    %r13
    85bd:	41 5e                	pop    %r14
    85bf:	41 5f                	pop    %r15
    85c1:	5d                   	pop    %rbp
    85c2:	c3                   	retq   
    85c3:	66 2e 0f 1f 84 00 00 	nopw   %cs:0x0(%rax,%rax,1)
    85ca:	00 00 00 
    85cd:	0f 1f 00             	nopl   (%rax)

00000000000085d0 <_ZN18coroutine_overhead8function2l117hbffb2ab7e5b614d0E>:
    85d0:	55                   	push   %rbp
    85d1:	41 57                	push   %r15
    85d3:	41 56                	push   %r14
    85d5:	41 55                	push   %r13
    85d7:	41 54                	push   %r12
    85d9:	53                   	push   %rbx
    85da:	50                   	push   %rax
    85db:	48 85 ff             	test   %rdi,%rdi
    85de:	74 7d                	je     865d <_ZN18coroutine_overhead8function2l117hbffb2ab7e5b614d0E+0x8d>
    85e0:	4d 89 cf             	mov    %r9,%r15
    85e3:	4d 89 c4             	mov    %r8,%r12
    85e6:	49 89 cd             	mov    %rcx,%r13
    85e9:	48 89 d3             	mov    %rdx,%rbx
    85ec:	48 89 f1             	mov    %rsi,%rcx
    85ef:	48 89 fd             	mov    %rdi,%rbp
    85f2:	31 f6                	xor    %esi,%esi
    85f4:	48 89 0c 24          	mov    %rcx,(%rsp)
    85f8:	48 8b 14 24          	mov    (%rsp),%rdx
    85fc:	48 89 d9             	mov    %rbx,%rcx
    85ff:	4d 89 e8             	mov    %r13,%r8
    8602:	4d 89 e1             	mov    %r12,%r9
    8605:	ff 74 24 40          	pushq  0x40(%rsp)
    8609:	41 57                	push   %r15
    860b:	e8 20 ff ff ff       	callq  8530 <_ZN18coroutine_overhead8function2l217h058d64b711177178E>
    8610:	48 83 c4 10          	add    $0x10,%rsp
    8614:	48 83 fd 01          	cmp    $0x1,%rbp
    8618:	74 43                	je     865d <_ZN18coroutine_overhead8function2l117hbffb2ab7e5b614d0E+0x8d>
    861a:	4c 89 f8             	mov    %r15,%rax
    861d:	be 01 00 00 00       	mov    $0x1,%esi
    8622:	66 2e 0f 1f 84 00 00 	nopw   %cs:0x0(%rax,%rax,1)
    8629:	00 00 00 
    862c:	0f 1f 40 00          	nopl   0x0(%rax)
    8630:	4c 8d 76 01          	lea    0x1(%rsi),%r14
    8634:	48 89 ef             	mov    %rbp,%rdi
    8637:	48 8b 14 24          	mov    (%rsp),%rdx
    863b:	48 89 d9             	mov    %rbx,%rcx
    863e:	4d 89 e8             	mov    %r13,%r8
    8641:	4d 89 e1             	mov    %r12,%r9
    8644:	ff 74 24 40          	pushq  0x40(%rsp)
    8648:	50                   	push   %rax
    8649:	e8 e2 fe ff ff       	callq  8530 <_ZN18coroutine_overhead8function2l217h058d64b711177178E>
    864e:	4c 89 f8             	mov    %r15,%rax
    8651:	48 83 c4 10          	add    $0x10,%rsp
    8655:	4c 89 f6             	mov    %r14,%rsi
    8658:	4c 39 f5             	cmp    %r14,%rbp
    865b:	75 d3                	jne    8630 <_ZN18coroutine_overhead8function2l117hbffb2ab7e5b614d0E+0x60>
    865d:	48 83 c4 08          	add    $0x8,%rsp
    8661:	5b                   	pop    %rbx
    8662:	41 5c                	pop    %r12
    8664:	41 5d                	pop    %r13
    8666:	41 5e                	pop    %r14
    8668:	41 5f                	pop    %r15
    866a:	5d                   	pop    %rbp
    866b:	c3                   	retq   
    866c:	0f 1f 40 00          	nopl   0x0(%rax)

0000000000008670 <_ZN18coroutine_overhead8function10size_check17h7504ebb1e9afbf52E>:
    8670:	41 56                	push   %r14
    8672:	53                   	push   %rbx
    8673:	50                   	push   %rax
    8674:	49 89 d6             	mov    %rdx,%r14
    8677:	48 89 fb             	mov    %rdi,%rbx
    867a:	e8 51 fd ff ff       	callq  83d0 <_ZN18coroutine_overhead8function5equal17hd27694547d3aab48E>
    867f:	84 c0                	test   %al,%al
    8681:	74 19                	je     869c <_ZN18coroutine_overhead8function10size_check17h7504ebb1e9afbf52E+0x2c>
    8683:	48 89 df             	mov    %rbx,%rdi
    8686:	4c 89 f6             	mov    %r14,%rsi
    8689:	e8 42 fd ff ff       	callq  83d0 <_ZN18coroutine_overhead8function5equal17hd27694547d3aab48E>
    868e:	84 c0                	test   %al,%al
    8690:	74 0a                	je     869c <_ZN18coroutine_overhead8function10size_check17h7504ebb1e9afbf52E+0x2c>
    8692:	31 c0                	xor    %eax,%eax
    8694:	48 83 c4 08          	add    $0x8,%rsp
    8698:	5b                   	pop    %rbx
    8699:	41 5e                	pop    %r14
    869b:	c3                   	retq   
    869c:	48 8d 05 c9 58 03 00 	lea    0x358c9(%rip),%rax        # 3df6c <_fini+0xe8>
    86a3:	48 83 c4 08          	add    $0x8,%rsp
    86a7:	5b                   	pop    %rbx
    86a8:	41 5e                	pop    %r14
    86aa:	c3                   	retq   
    86ab:	0f 1f 44 00 00       	nopl   0x0(%rax,%rax,1)

00000000000086b0 <_ZN18coroutine_overhead8function7l3_fast17h0f00ce6df77ebca1E>:
    86b0:	55                   	push   %rbp
    86b1:	41 57                	push   %r15
    86b3:	41 56                	push   %r14
    86b5:	41 55                	push   %r13
    86b7:	41 54                	push   %r12
    86b9:	53                   	push   %rbx
    86ba:	50                   	push   %rax
    86bb:	4c 8b 54 24 50       	mov    0x50(%rsp),%r10
    86c0:	4c 8b 74 24 48       	mov    0x48(%rsp),%r14
    86c5:	4c 8b 5c 24 40       	mov    0x40(%rsp),%r11
    86ca:	48 0f af f7          	imul   %rdi,%rsi
    86ce:	45 31 ff             	xor    %r15d,%r15d
    86d1:	49 89 fc             	mov    %rdi,%r12
    86d4:	48 89 f3             	mov    %rsi,%rbx
    86d7:	48 89 d0             	mov    %rdx,%rax
    86da:	66 0f 1f 44 00 00    	nopw   0x0(%rax,%rax,1)
    86e0:	4c 39 c3             	cmp    %r8,%rbx
    86e3:	73 4a                	jae    872f <_ZN18coroutine_overhead8function7l3_fast17h0f00ce6df77ebca1E+0x7f>
    86e5:	4c 39 d8             	cmp    %r11,%rax
    86e8:	73 61                	jae    874b <_ZN18coroutine_overhead8function7l3_fast17h0f00ce6df77ebca1E+0x9b>
    86ea:	44 0f b7 2c d9       	movzwl (%rcx,%rbx,8),%r13d
    86ef:	41 0f b7 2c c1       	movzwl (%r9,%rax,8),%ebp
    86f4:	49 0f af ed          	imul   %r13,%rbp
    86f8:	49 01 ef             	add    %rbp,%r15
    86fb:	48 01 f8             	add    %rdi,%rax
    86fe:	48 83 c3 01          	add    $0x1,%rbx
    8702:	49 83 c4 ff          	add    $0xffffffffffffffff,%r12
    8706:	75 d8                	jne    86e0 <_ZN18coroutine_overhead8function7l3_fast17h0f00ce6df77ebca1E+0x30>
    8708:	48 01 d6             	add    %rdx,%rsi
    870b:	4c 39 d6             	cmp    %r10,%rsi
    870e:	73 50                	jae    8760 <_ZN18coroutine_overhead8function7l3_fast17h0f00ce6df77ebca1E+0xb0>
    8710:	41 0f b7 c7          	movzwl %r15w,%eax
    8714:	41 0f b7 0c f6       	movzwl (%r14,%rsi,8),%ecx
    8719:	48 01 c1             	add    %rax,%rcx
    871c:	49 89 0c f6          	mov    %rcx,(%r14,%rsi,8)
    8720:	48 83 c4 08          	add    $0x8,%rsp
    8724:	5b                   	pop    %rbx
    8725:	41 5c                	pop    %r12
    8727:	41 5d                	pop    %r13
    8729:	41 5e                	pop    %r14
    872b:	41 5f                	pop    %r15
    872d:	5d                   	pop    %rbp
    872e:	c3                   	retq   
    872f:	49 39 f0             	cmp    %rsi,%r8
    8732:	49 0f 47 f0          	cmova  %r8,%rsi
    8736:	48 8d 15 c3 38 24 00 	lea    0x2438c3(%rip),%rdx        # 24c000 <anon.301c5d4cbd7f8c5b61df91e2cad8fefb.0.llvm.13767110465242657722+0x1c8>
    873d:	48 89 f7             	mov    %rsi,%rdi
    8740:	4c 89 c6             	mov    %r8,%rsi
    8743:	ff 15 1f 67 24 00    	callq  *0x24671f(%rip)        # 24ee68 <_GLOBAL_OFFSET_TABLE_+0x588>
    8749:	0f 0b                	ud2    
    874b:	48 8d 15 c6 38 24 00 	lea    0x2438c6(%rip),%rdx        # 24c018 <anon.301c5d4cbd7f8c5b61df91e2cad8fefb.0.llvm.13767110465242657722+0x1e0>
    8752:	48 89 c7             	mov    %rax,%rdi
    8755:	4c 89 de             	mov    %r11,%rsi
    8758:	ff 15 0a 67 24 00    	callq  *0x24670a(%rip)        # 24ee68 <_GLOBAL_OFFSET_TABLE_+0x588>
    875e:	0f 0b                	ud2    
    8760:	48 8d 15 c9 38 24 00 	lea    0x2438c9(%rip),%rdx        # 24c030 <anon.301c5d4cbd7f8c5b61df91e2cad8fefb.0.llvm.13767110465242657722+0x1f8>
    8767:	48 89 f7             	mov    %rsi,%rdi
    876a:	4c 89 d6             	mov    %r10,%rsi
    876d:	ff 15 f5 66 24 00    	callq  *0x2466f5(%rip)        # 24ee68 <_GLOBAL_OFFSET_TABLE_+0x588>
    8773:	0f 0b                	ud2    
    8775:	66 2e 0f 1f 84 00 00 	nopw   %cs:0x0(%rax,%rax,1)
    877c:	00 00 00 
    877f:	90                   	nop

0000000000008780 <_ZN18coroutine_overhead8function7l2_fast17heb460127c1fbe332E>:
    8780:	55                   	push   %rbp
    8781:	41 57                	push   %r15
    8783:	41 56                	push   %r14
    8785:	41 55                	push   %r13
    8787:	41 54                	push   %r12
    8789:	53                   	push   %rbx
    878a:	50                   	push   %rax
    878b:	4c 89 c8             	mov    %r9,%rax
    878e:	4d 89 c1             	mov    %r8,%r9
    8791:	49 89 c8             	mov    %rcx,%r8
    8794:	48 89 d1             	mov    %rdx,%rcx
    8797:	48 89 fd             	mov    %rdi,%rbp
    879a:	48 83 ec 08          	sub    $0x8,%rsp
    879e:	48 89 74 24 08       	mov    %rsi,0x8(%rsp)
    87a3:	31 d2                	xor    %edx,%edx
    87a5:	48 89 cb             	mov    %rcx,%rbx
    87a8:	4d 89 c5             	mov    %r8,%r13
    87ab:	4d 89 cc             	mov    %r9,%r12
    87ae:	ff 74 24 50          	pushq  0x50(%rsp)
    87b2:	ff 74 24 50          	pushq  0x50(%rsp)
    87b6:	49 89 c7             	mov    %rax,%r15
    87b9:	50                   	push   %rax
    87ba:	e8 f1 fe ff ff       	callq  86b0 <_ZN18coroutine_overhead8function7l3_fast17h0f00ce6df77ebca1E>
    87bf:	48 83 c4 20          	add    $0x20,%rsp
    87c3:	48 83 fd 01          	cmp    $0x1,%rbp
    87c7:	74 3b                	je     8804 <_ZN18coroutine_overhead8function7l2_fast17heb460127c1fbe332E+0x84>
    87c9:	ba 01 00 00 00       	mov    $0x1,%edx
    87ce:	66 90                	xchg   %ax,%ax
    87d0:	4c 8d 72 01          	lea    0x1(%rdx),%r14
    87d4:	48 83 ec 08          	sub    $0x8,%rsp
    87d8:	48 89 ef             	mov    %rbp,%rdi
    87db:	48 8b 74 24 08       	mov    0x8(%rsp),%rsi
    87e0:	48 89 d9             	mov    %rbx,%rcx
    87e3:	4d 89 e8             	mov    %r13,%r8
    87e6:	4d 89 e1             	mov    %r12,%r9
    87e9:	ff 74 24 50          	pushq  0x50(%rsp)
    87ed:	ff 74 24 50          	pushq  0x50(%rsp)
    87f1:	41 57                	push   %r15
    87f3:	e8 b8 fe ff ff       	callq  86b0 <_ZN18coroutine_overhead8function7l3_fast17h0f00ce6df77ebca1E>
    87f8:	48 83 c4 20          	add    $0x20,%rsp
    87fc:	4c 89 f2             	mov    %r14,%rdx
    87ff:	4c 39 f5             	cmp    %r14,%rbp
    8802:	75 cc                	jne    87d0 <_ZN18coroutine_overhead8function7l2_fast17heb460127c1fbe332E+0x50>
    8804:	48 83 c4 08          	add    $0x8,%rsp
    8808:	5b                   	pop    %rbx
    8809:	41 5c                	pop    %r12
    880b:	41 5d                	pop    %r13
    880d:	41 5e                	pop    %r14
    880f:	41 5f                	pop    %r15
    8811:	5d                   	pop    %rbp
    8812:	c3                   	retq   
    8813:	66 2e 0f 1f 84 00 00 	nopw   %cs:0x0(%rax,%rax,1)
    881a:	00 00 00 
    881d:	0f 1f 00             	nopl   (%rax)

0000000000008820 <_ZN18coroutine_overhead8function7l1_fast17h0a9faaf18c3457adE>:
    8820:	55                   	push   %rbp
    8821:	41 57                	push   %r15
    8823:	41 56                	push   %r14
    8825:	41 55                	push   %r13
    8827:	41 54                	push   %r12
    8829:	53                   	push   %rbx
    882a:	50                   	push   %rax
    882b:	48 85 ff             	test   %rdi,%rdi
    882e:	74 7d                	je     88ad <_ZN18coroutine_overhead8function7l1_fast17h0a9faaf18c3457adE+0x8d>
    8830:	4d 89 cf             	mov    %r9,%r15
    8833:	4d 89 c4             	mov    %r8,%r12
    8836:	49 89 cd             	mov    %rcx,%r13
    8839:	48 89 d3             	mov    %rdx,%rbx
    883c:	48 89 f1             	mov    %rsi,%rcx
    883f:	48 89 fd             	mov    %rdi,%rbp
    8842:	31 f6                	xor    %esi,%esi
    8844:	48 89 0c 24          	mov    %rcx,(%rsp)
    8848:	48 8b 14 24          	mov    (%rsp),%rdx
    884c:	48 89 d9             	mov    %rbx,%rcx
    884f:	4d 89 e8             	mov    %r13,%r8
    8852:	4d 89 e1             	mov    %r12,%r9
    8855:	ff 74 24 40          	pushq  0x40(%rsp)
    8859:	41 57                	push   %r15
    885b:	e8 20 ff ff ff       	callq  8780 <_ZN18coroutine_overhead8function7l2_fast17heb460127c1fbe332E>
    8860:	48 83 c4 10          	add    $0x10,%rsp
    8864:	48 83 fd 01          	cmp    $0x1,%rbp
    8868:	74 43                	je     88ad <_ZN18coroutine_overhead8function7l1_fast17h0a9faaf18c3457adE+0x8d>
    886a:	4c 89 f8             	mov    %r15,%rax
    886d:	be 01 00 00 00       	mov    $0x1,%esi
    8872:	66 2e 0f 1f 84 00 00 	nopw   %cs:0x0(%rax,%rax,1)
    8879:	00 00 00 
    887c:	0f 1f 40 00          	nopl   0x0(%rax)
    8880:	4c 8d 76 01          	lea    0x1(%rsi),%r14
    8884:	48 89 ef             	mov    %rbp,%rdi
    8887:	48 8b 14 24          	mov    (%rsp),%rdx
    888b:	48 89 d9             	mov    %rbx,%rcx
    888e:	4d 89 e8             	mov    %r13,%r8
    8891:	4d 89 e1             	mov    %r12,%r9
    8894:	ff 74 24 40          	pushq  0x40(%rsp)
    8898:	50                   	push   %rax
    8899:	e8 e2 fe ff ff       	callq  8780 <_ZN18coroutine_overhead8function7l2_fast17heb460127c1fbe332E>
    889e:	4c 89 f8             	mov    %r15,%rax
    88a1:	48 83 c4 10          	add    $0x10,%rsp
    88a5:	4c 89 f6             	mov    %r14,%rsi
    88a8:	4c 39 f5             	cmp    %r14,%rbp
    88ab:	75 d3                	jne    8880 <_ZN18coroutine_overhead8function7l1_fast17h0a9faaf18c3457adE+0x60>
    88ad:	48 83 c4 08          	add    $0x8,%rsp
    88b1:	5b                   	pop    %rbx
    88b2:	41 5c                	pop    %r12
    88b4:	41 5d                	pop    %r13
    88b6:	41 5e                	pop    %r14
    88b8:	41 5f                	pop    %r15
    88ba:	5d                   	pop    %rbp
    88bb:	c3                   	retq   
    88bc:	0f 1f 40 00          	nopl   0x0(%rax)

00000000000088c0 <_ZN18coroutine_overhead8function8dot_fast17h2c66bf3c61ad7b39E>:
    88c0:	41 57                	push   %r15
    88c2:	41 56                	push   %r14
    88c4:	41 55                	push   %r13
    88c6:	41 54                	push   %r12
    88c8:	53                   	push   %rbx
    88c9:	48 83 ec 10          	sub    $0x10,%rsp
    88cd:	49 89 d7             	mov    %rdx,%r15
    88d0:	49 89 f5             	mov    %rsi,%r13
    88d3:	48 89 fb             	mov    %rdi,%rbx
    88d6:	4c 8b 77 10          	mov    0x10(%rdi),%r14
    88da:	48 8b 76 10          	mov    0x10(%rsi),%rsi
    88de:	48 8b 52 10          	mov    0x10(%rdx),%rdx
    88e2:	4c 89 f7             	mov    %r14,%rdi
    88e5:	e8 86 fd ff ff       	callq  8670 <_ZN18coroutine_overhead8function10size_check17h7504ebb1e9afbf52E>
    88ea:	49 89 c4             	mov    %rax,%r12
    88ed:	48 85 c0             	test   %rax,%rax
    88f0:	75 22                	jne    8914 <_ZN18coroutine_overhead8function8dot_fast17h2c66bf3c61ad7b39E+0x54>
    88f2:	48 8b 33             	mov    (%rbx),%rsi
    88f5:	48 8b 53 08          	mov    0x8(%rbx),%rdx
    88f9:	49 8b 4d 00          	mov    0x0(%r13),%rcx
    88fd:	4d 8b 45 08          	mov    0x8(%r13),%r8
    8901:	4d 8b 0f             	mov    (%r15),%r9
    8904:	49 8b 47 08          	mov    0x8(%r15),%rax
    8908:	48 89 04 24          	mov    %rax,(%rsp)
    890c:	4c 89 f7             	mov    %r14,%rdi
    890f:	e8 0c ff ff ff       	callq  8820 <_ZN18coroutine_overhead8function7l1_fast17h0a9faaf18c3457adE>
    8914:	ba 12 00 00 00       	mov    $0x12,%edx
    8919:	4c 89 e0             	mov    %r12,%rax
    891c:	48 83 c4 10          	add    $0x10,%rsp
    8920:	5b                   	pop    %rbx
    8921:	41 5c                	pop    %r12
    8923:	41 5d                	pop    %r13
    8925:	41 5e                	pop    %r14
    8927:	41 5f                	pop    %r15
    8929:	c3                   	retq   
    892a:	66 0f 1f 44 00 00    	nopw   0x0(%rax,%rax,1)

0000000000008930 <__rust_alloc>:
    8930:	e9 7b 65 01 00       	jmpq   1eeb0 <__rdl_alloc>
    8935:	66 2e 0f 1f 84 00 00 	nopw   %cs:0x0(%rax,%rax,1)
    893c:	00 00 00 
    893f:	90                   	nop

0000000000008940 <__rust_dealloc>:
    8940:	e9 bb 65 01 00       	jmpq   1ef00 <__rdl_dealloc>
    8945:	66 2e 0f 1f 84 00 00 	nopw   %cs:0x0(%rax,%rax,1)
    894c:	00 00 00 
    894f:	90                   	nop

0000000000008950 <__rust_realloc>:
    8950:	e9 bb 65 01 00       	jmpq   1ef10 <__rdl_realloc>
    8955:	66 2e 0f 1f 84 00 00 	nopw   %cs:0x0(%rax,%rax,1)
    895c:	00 00 00 
    895f:	90                   	nop

0000000000008960 <__rust_alloc_zeroed>:
    8960:	e9 4b 66 01 00       	jmpq   1efb0 <__rdl_alloc_zeroed>
    8965:	66 2e 0f 1f 84 00 00 	nopw   %cs:0x0(%rax,%rax,1)
    896c:	00 00 00 
    896f:	90                   	nop

0000000000008970 <__rust_alloc_error_handler>:
    8970:	e9 7b fc 02 00       	jmpq   385f0 <__rg_oom>
    8975:	66 2e 0f 1f 84 00 00 	nopw   %cs:0x0(%rax,%rax,1)
    897c:	00 00 00 
    897f:	90                   	nop

0000000000008980 <_ZN4core3ptr46drop_in_place$LT$nix..errno..consts..Errno$GT$17h53e1198a9e53279aE>:
    8980:	c3                   	retq   
    8981:	66 2e 0f 1f 84 00 00 	nopw   %cs:0x0(%rax,%rax,1)
    8988:	00 00 00 
    898b:	0f 1f 44 00 00       	nopl   0x0(%rax,%rax,1)

0000000000008990 <_ZN7gettime6get_ns17h94900bac3ad4bfd6E>:
    8990:	48 83 ec 28          	sub    $0x28,%rsp
    8994:	48 8d 7c 24 10       	lea    0x10(%rsp),%rdi
    8999:	be 01 00 00 00       	mov    $0x1,%esi
    899e:	ff 15 04 60 24 00    	callq  *0x246004(%rip)        # 24e9a8 <_GLOBAL_OFFSET_TABLE_+0xc8>
    89a4:	83 7c 24 10 01       	cmpl   $0x1,0x10(%rsp)
    89a9:	74 0f                	je     89ba <_ZN7gettime6get_ns17h94900bac3ad4bfd6E+0x2a>
    89ab:	48 8b 44 24 18       	mov    0x18(%rsp),%rax
    89b0:	48 8b 54 24 20       	mov    0x20(%rsp),%rdx
    89b5:	48 83 c4 28          	add    $0x28,%rsp
    89b9:	c3                   	retq   
    89ba:	8b 44 24 14          	mov    0x14(%rsp),%eax
    89be:	89 44 24 0c          	mov    %eax,0xc(%rsp)
    89c2:	48 8d 3d c7 55 03 00 	lea    0x355c7(%rip),%rdi        # 3df90 <_fini+0x10c>
    89c9:	48 8d 0d 90 36 24 00 	lea    0x243690(%rip),%rcx        # 24c060 <anon.301c5d4cbd7f8c5b61df91e2cad8fefb.0.llvm.13767110465242657722+0x228>
    89d0:	4c 8d 05 71 36 24 00 	lea    0x243671(%rip),%r8        # 24c048 <anon.301c5d4cbd7f8c5b61df91e2cad8fefb.0.llvm.13767110465242657722+0x210>
    89d7:	48 8d 54 24 0c       	lea    0xc(%rsp),%rdx
    89dc:	be 2b 00 00 00       	mov    $0x2b,%esi
    89e1:	ff 15 d9 63 24 00    	callq  *0x2463d9(%rip)        # 24edc0 <_GLOBAL_OFFSET_TABLE_+0x4e0>
    89e7:	0f 0b                	ud2    
    89e9:	0f 1f 80 00 00 00 00 	nopl   0x0(%rax)

00000000000089f0 <_ZN3nix4time13clock_gettime17h55ad334ae868dd42E>:
    89f0:	53                   	push   %rbx
    89f1:	48 83 ec 10          	sub    $0x10,%rsp
    89f5:	89 f0                	mov    %esi,%eax
    89f7:	48 89 fb             	mov    %rdi,%rbx
    89fa:	48 89 e6             	mov    %rsp,%rsi
    89fd:	89 c7                	mov    %eax,%edi
    89ff:	ff 15 13 60 24 00    	callq  *0x246013(%rip)        # 24ea18 <clock_gettime@GLIBC_2.17>
    8a05:	83 f8 ff             	cmp    $0xffffffff,%eax
    8a08:	74 0c                	je     8a16 <_ZN3nix4time13clock_gettime17h55ad334ae868dd42E+0x26>
    8a0a:	0f 28 04 24          	movaps (%rsp),%xmm0
    8a0e:	0f 11 43 08          	movups %xmm0,0x8(%rbx)
    8a12:	31 c0                	xor    %eax,%eax
    8a14:	eb 16                	jmp    8a2c <_ZN3nix4time13clock_gettime17h55ad334ae868dd42E+0x3c>
    8a16:	ff 15 b4 63 24 00    	callq  *0x2463b4(%rip)        # 24edd0 <__errno_location@GLIBC_2.2.5>
    8a1c:	8b 38                	mov    (%rax),%edi
    8a1e:	ff 15 ec 60 24 00    	callq  *0x2460ec(%rip)        # 24eb10 <_GLOBAL_OFFSET_TABLE_+0x230>
    8a24:	89 43 04             	mov    %eax,0x4(%rbx)
    8a27:	b8 01 00 00 00       	mov    $0x1,%eax
    8a2c:	89 03                	mov    %eax,(%rbx)
    8a2e:	48 89 d8             	mov    %rbx,%rax
    8a31:	48 83 c4 10          	add    $0x10,%rsp
    8a35:	5b                   	pop    %rbx
    8a36:	c3                   	retq   
    8a37:	66 0f 1f 84 00 00 00 	nopw   0x0(%rax,%rax,1)
    8a3e:	00 00 

0000000000008a40 <_ZN44_$LT$$RF$T$u20$as$u20$core..fmt..Display$GT$3fmt17h4b41fb060f2511cdE>:
    8a40:	48 89 f2             	mov    %rsi,%rdx
    8a43:	48 8b 07             	mov    (%rdi),%rax
    8a46:	48 8b 77 08          	mov    0x8(%rdi),%rsi
    8a4a:	48 89 c7             	mov    %rax,%rdi
    8a4d:	ff 25 65 62 24 00    	jmpq   *0x246265(%rip)        # 24ecb8 <_GLOBAL_OFFSET_TABLE_+0x3d8>
    8a53:	66 2e 0f 1f 84 00 00 	nopw   %cs:0x0(%rax,%rax,1)
    8a5a:	00 00 00 
    8a5d:	0f 1f 00             	nopl   (%rax)

0000000000008a60 <_ZN4core3ptr28drop_in_place$LT$$RF$i32$GT$17h30b5cb77a2a666cbE>:
    8a60:	c3                   	retq   
    8a61:	66 2e 0f 1f 84 00 00 	nopw   %cs:0x0(%rax,%rax,1)
    8a68:	00 00 00 
    8a6b:	0f 1f 44 00 00       	nopl   0x0(%rax,%rax,1)

0000000000008a70 <_ZN3nix5errno6consts8from_i3217h8afd0a7f9f72f16eE>:
    8a70:	83 c7 ff             	add    $0xffffffff,%edi
    8a73:	31 c0                	xor    %eax,%eax
    8a75:	81 ff 84 00 00 00    	cmp    $0x84,%edi
    8a7b:	77 0d                	ja     8a8a <_ZN3nix5errno6consts8from_i3217h8afd0a7f9f72f16eE+0x1a>
    8a7d:	48 63 c7             	movslq %edi,%rax
    8a80:	48 8d 0d 25 5d 03 00 	lea    0x35d25(%rip),%rcx        # 3e7ac <_fini+0x928>
    8a87:	8b 04 81             	mov    (%rcx,%rax,4),%eax
    8a8a:	c3                   	retq   
    8a8b:	0f 1f 44 00 00       	nopl   0x0(%rax,%rax,1)

0000000000008a90 <_ZN62_$LT$nix..errno..consts..Errno$u20$as$u20$core..fmt..Debug$GT$3fmt17hf60209c1e3ad7502E>:
    8a90:	8a 07                	mov    (%rdi),%al
    8a92:	04 80                	add    $0x80,%al
    8a94:	0f b6 c0             	movzbl %al,%eax
    8a97:	48 8d 0d 1e 55 03 00 	lea    0x3551e(%rip),%rcx        # 3dfbc <_fini+0x138>
    8a9e:	48 63 04 81          	movslq (%rcx,%rax,4),%rax
    8aa2:	48 01 c8             	add    %rcx,%rax
    8aa5:	ff e0                	jmpq   *%rax
    8aa7:	48 8d 05 43 59 03 00 	lea    0x35943(%rip),%rax        # 3e3f1 <_fini+0x56d>
    8aae:	ba 0b 00 00 00       	mov    $0xb,%edx
    8ab3:	48 89 f7             	mov    %rsi,%rdi
    8ab6:	48 89 c6             	mov    %rax,%rsi
    8ab9:	ff 25 59 5e 24 00    	jmpq   *0x245e59(%rip)        # 24e918 <_GLOBAL_OFFSET_TABLE_+0x38>
    8abf:	48 8d 05 cf 5c 03 00 	lea    0x35ccf(%rip),%rax        # 3e795 <_fini+0x911>
    8ac6:	ba 06 00 00 00       	mov    $0x6,%edx
    8acb:	48 89 f7             	mov    %rsi,%rdi
    8ace:	48 89 c6             	mov    %rax,%rsi
    8ad1:	ff 25 41 5e 24 00    	jmpq   *0x245e41(%rip)        # 24e918 <_GLOBAL_OFFSET_TABLE_+0x38>
    8ad7:	48 8d 05 6f 5c 03 00 	lea    0x35c6f(%rip),%rax        # 3e74d <_fini+0x8c9>
    8ade:	ba 07 00 00 00       	mov    $0x7,%edx
    8ae3:	48 89 f7             	mov    %rsi,%rdi
    8ae6:	48 89 c6             	mov    %rax,%rsi
    8ae9:	ff 25 29 5e 24 00    	jmpq   *0x245e29(%rip)        # 24e918 <_GLOBAL_OFFSET_TABLE_+0x38>
    8aef:	48 8d 05 9a 5c 03 00 	lea    0x35c9a(%rip),%rax        # 3e790 <_fini+0x90c>
    8af6:	ba 05 00 00 00       	mov    $0x5,%edx
    8afb:	48 89 f7             	mov    %rsi,%rdi
    8afe:	48 89 c6             	mov    %rax,%rsi
    8b01:	ff 25 11 5e 24 00    	jmpq   *0x245e11(%rip)        # 24e918 <_GLOBAL_OFFSET_TABLE_+0x38>
    8b07:	48 8d 05 3a 5c 03 00 	lea    0x35c3a(%rip),%rax        # 3e748 <_fini+0x8c4>
    8b0e:	ba 05 00 00 00       	mov    $0x5,%edx
    8b13:	48 89 f7             	mov    %rsi,%rdi
    8b16:	48 89 c6             	mov    %rax,%rsi
    8b19:	ff 25 f9 5d 24 00    	jmpq   *0x245df9(%rip)        # 24e918 <_GLOBAL_OFFSET_TABLE_+0x38>
    8b1f:	48 8d 05 11 5c 03 00 	lea    0x35c11(%rip),%rax        # 3e737 <_fini+0x8b3>
    8b26:	ba 06 00 00 00       	mov    $0x6,%edx
    8b2b:	48 89 f7             	mov    %rsi,%rdi
    8b2e:	48 89 c6             	mov    %rax,%rsi
    8b31:	ff 25 e1 5d 24 00    	jmpq   *0x245de1(%rip)        # 24e918 <_GLOBAL_OFFSET_TABLE_+0x38>
    8b37:	48 8d 05 a6 5b 03 00 	lea    0x35ba6(%rip),%rax        # 3e6e4 <_fini+0x860>
    8b3e:	ba 06 00 00 00       	mov    $0x6,%edx
    8b43:	48 89 f7             	mov    %rsi,%rdi
    8b46:	48 89 c6             	mov    %rax,%rsi
    8b49:	ff 25 c9 5d 24 00    	jmpq   *0x245dc9(%rip)        # 24e918 <_GLOBAL_OFFSET_TABLE_+0x38>
    8b4f:	48 8d 05 5b 5b 03 00 	lea    0x35b5b(%rip),%rax        # 3e6b1 <_fini+0x82d>
    8b56:	ba 06 00 00 00       	mov    $0x6,%edx
    8b5b:	48 89 f7             	mov    %rsi,%rdi
    8b5e:	48 89 c6             	mov    %rax,%rsi
    8b61:	ff 25 b1 5d 24 00    	jmpq   *0x245db1(%rip)        # 24e918 <_GLOBAL_OFFSET_TABLE_+0x38>
    8b67:	48 8d 05 3e 5b 03 00 	lea    0x35b3e(%rip),%rax        # 3e6ac <_fini+0x828>
    8b6e:	ba 05 00 00 00       	mov    $0x5,%edx
    8b73:	48 89 f7             	mov    %rsi,%rdi
    8b76:	48 89 c6             	mov    %rax,%rsi
    8b79:	ff 25 99 5d 24 00    	jmpq   *0x245d99(%rip)        # 24e918 <_GLOBAL_OFFSET_TABLE_+0x38>
    8b7f:	48 8d 05 02 5c 03 00 	lea    0x35c02(%rip),%rax        # 3e788 <_fini+0x904>
    8b86:	ba 03 00 00 00       	mov    $0x3,%edx
    8b8b:	48 89 f7             	mov    %rsi,%rdi
    8b8e:	48 89 c6             	mov    %rax,%rsi
    8b91:	ff 25 81 5d 24 00    	jmpq   *0x245d81(%rip)        # 24e918 <_GLOBAL_OFFSET_TABLE_+0x38>
    8b97:	48 8d 05 c8 5b 03 00 	lea    0x35bc8(%rip),%rax        # 3e766 <_fini+0x8e2>
    8b9e:	ba 06 00 00 00       	mov    $0x6,%edx
    8ba3:	48 89 f7             	mov    %rsi,%rdi
    8ba6:	48 89 c6             	mov    %rax,%rsi
    8ba9:	ff 25 69 5d 24 00    	jmpq   *0x245d69(%rip)        # 24e918 <_GLOBAL_OFFSET_TABLE_+0x38>
    8baf:	48 8d 05 aa 5b 03 00 	lea    0x35baa(%rip),%rax        # 3e760 <_fini+0x8dc>
    8bb6:	ba 06 00 00 00       	mov    $0x6,%edx
    8bbb:	48 89 f7             	mov    %rsi,%rdi
    8bbe:	48 89 c6             	mov    %rax,%rsi
    8bc1:	ff 25 51 5d 24 00    	jmpq   *0x245d51(%rip)        # 24e918 <_GLOBAL_OFFSET_TABLE_+0x38>
    8bc7:	48 8d 05 74 5b 03 00 	lea    0x35b74(%rip),%rax        # 3e742 <_fini+0x8be>
    8bce:	ba 06 00 00 00       	mov    $0x6,%edx
    8bd3:	48 89 f7             	mov    %rsi,%rdi
    8bd6:	48 89 c6             	mov    %rax,%rsi
    8bd9:	ff 25 39 5d 24 00    	jmpq   *0x245d39(%rip)        # 24e918 <_GLOBAL_OFFSET_TABLE_+0x38>
    8bdf:	48 8d 05 4a 5b 03 00 	lea    0x35b4a(%rip),%rax        # 3e730 <_fini+0x8ac>
    8be6:	ba 07 00 00 00       	mov    $0x7,%edx
    8beb:	48 89 f7             	mov    %rsi,%rdi
    8bee:	48 89 c6             	mov    %rax,%rsi
    8bf1:	ff 25 21 5d 24 00    	jmpq   *0x245d21(%rip)        # 24e918 <_GLOBAL_OFFSET_TABLE_+0x38>
    8bf7:	48 8d 05 20 5b 03 00 	lea    0x35b20(%rip),%rax        # 3e71e <_fini+0x89a>
    8bfe:	ba 06 00 00 00       	mov    $0x6,%edx
    8c03:	48 89 f7             	mov    %rsi,%rdi
    8c06:	48 89 c6             	mov    %rax,%rsi
    8c09:	ff 25 09 5d 24 00    	jmpq   *0x245d09(%rip)        # 24e918 <_GLOBAL_OFFSET_TABLE_+0x38>
    8c0f:	48 8d 05 e4 5a 03 00 	lea    0x35ae4(%rip),%rax        # 3e6fa <_fini+0x876>
    8c16:	ba 06 00 00 00       	mov    $0x6,%edx
    8c1b:	48 89 f7             	mov    %rsi,%rdi
    8c1e:	48 89 c6             	mov    %rax,%rsi
    8c21:	ff 25 f1 5c 24 00    	jmpq   *0x245cf1(%rip)        # 24e918 <_GLOBAL_OFFSET_TABLE_+0x38>
    8c27:	48 8d 05 bc 5a 03 00 	lea    0x35abc(%rip),%rax        # 3e6ea <_fini+0x866>
    8c2e:	ba 05 00 00 00       	mov    $0x5,%edx
    8c33:	48 89 f7             	mov    %rsi,%rdi
    8c36:	48 89 c6             	mov    %rax,%rsi
    8c39:	ff 25 d9 5c 24 00    	jmpq   *0x245cd9(%rip)        # 24e918 <_GLOBAL_OFFSET_TABLE_+0x38>
    8c3f:	48 8d 05 85 5a 03 00 	lea    0x35a85(%rip),%rax        # 3e6cb <_fini+0x847>
    8c46:	ba 06 00 00 00       	mov    $0x6,%edx
    8c4b:	48 89 f7             	mov    %rsi,%rdi
    8c4e:	48 89 c6             	mov    %rax,%rsi
    8c51:	ff 25 c1 5c 24 00    	jmpq   *0x245cc1(%rip)        # 24e918 <_GLOBAL_OFFSET_TABLE_+0x38>
    8c57:	48 8d 05 3c 5a 03 00 	lea    0x35a3c(%rip),%rax        # 3e69a <_fini+0x816>
    8c5e:	ba 06 00 00 00       	mov    $0x6,%edx
    8c63:	48 89 f7             	mov    %rsi,%rdi
    8c66:	48 89 c6             	mov    %rax,%rsi
    8c69:	ff 25 a9 5c 24 00    	jmpq   *0x245ca9(%rip)        # 24e918 <_GLOBAL_OFFSET_TABLE_+0x38>
    8c6f:	48 8d 05 17 5a 03 00 	lea    0x35a17(%rip),%rax        # 3e68d <_fini+0x809>
    8c76:	ba 07 00 00 00       	mov    $0x7,%edx
    8c7b:	48 89 f7             	mov    %rsi,%rdi
    8c7e:	48 89 c6             	mov    %rax,%rsi
    8c81:	ff 25 91 5c 24 00    	jmpq   *0x245c91(%rip)        # 24e918 <_GLOBAL_OFFSET_TABLE_+0x38>
    8c87:	48 8d 05 d6 59 03 00 	lea    0x359d6(%rip),%rax        # 3e664 <_fini+0x7e0>
    8c8e:	ba 07 00 00 00       	mov    $0x7,%edx
    8c93:	48 89 f7             	mov    %rsi,%rdi
    8c96:	48 89 c6             	mov    %rax,%rsi
    8c99:	ff 25 79 5c 24 00    	jmpq   *0x245c79(%rip)        # 24e918 <_GLOBAL_OFFSET_TABLE_+0x38>
    8c9f:	48 8d 05 a4 59 03 00 	lea    0x359a4(%rip),%rax        # 3e64a <_fini+0x7c6>
    8ca6:	ba 07 00 00 00       	mov    $0x7,%edx
    8cab:	48 89 f7             	mov    %rsi,%rdi
    8cae:	48 89 c6             	mov    %rax,%rsi
    8cb1:	ff 25 61 5c 24 00    	jmpq   *0x245c61(%rip)        # 24e918 <_GLOBAL_OFFSET_TABLE_+0x38>
    8cb7:	48 8d 05 1d 59 03 00 	lea    0x3591d(%rip),%rax        # 3e5db <_fini+0x757>
    8cbe:	ba 06 00 00 00       	mov    $0x6,%edx
    8cc3:	48 89 f7             	mov    %rsi,%rdi
    8cc6:	48 89 c6             	mov    %rax,%rsi
    8cc9:	ff 25 49 5c 24 00    	jmpq   *0x245c49(%rip)        # 24e918 <_GLOBAL_OFFSET_TABLE_+0x38>
    8ccf:	48 8d 05 dc 58 03 00 	lea    0x358dc(%rip),%rax        # 3e5b2 <_fini+0x72e>
    8cd6:	ba 06 00 00 00       	mov    $0x6,%edx
    8cdb:	48 89 f7             	mov    %rsi,%rdi
    8cde:	48 89 c6             	mov    %rax,%rsi
    8ce1:	ff 25 31 5c 24 00    	jmpq   *0x245c31(%rip)        # 24e918 <_GLOBAL_OFFSET_TABLE_+0x38>
    8ce7:	48 8d 05 f7 56 03 00 	lea    0x356f7(%rip),%rax        # 3e3e5 <_fini+0x561>
    8cee:	ba 0c 00 00 00       	mov    $0xc,%edx
    8cf3:	48 89 f7             	mov    %rsi,%rdi
    8cf6:	48 89 c6             	mov    %rax,%rsi
    8cf9:	ff 25 19 5c 24 00    	jmpq   *0x245c19(%rip)        # 24e918 <_GLOBAL_OFFSET_TABLE_+0x38>
    8cff:	48 8d 05 d5 56 03 00 	lea    0x356d5(%rip),%rax        # 3e3db <_fini+0x557>
    8d06:	ba 0a 00 00 00       	mov    $0xa,%edx
    8d0b:	48 89 f7             	mov    %rsi,%rdi
    8d0e:	48 89 c6             	mov    %rax,%rsi
    8d11:	ff 25 01 5c 24 00    	jmpq   *0x245c01(%rip)        # 24e918 <_GLOBAL_OFFSET_TABLE_+0x38>
    8d17:	48 8d 05 a7 56 03 00 	lea    0x356a7(%rip),%rax        # 3e3c5 <_fini+0x541>
    8d1e:	ba 07 00 00 00       	mov    $0x7,%edx
    8d23:	48 89 f7             	mov    %rsi,%rdi
    8d26:	48 89 c6             	mov    %rax,%rsi
    8d29:	ff 25 e9 5b 24 00    	jmpq   *0x245be9(%rip)        # 24e918 <_GLOBAL_OFFSET_TABLE_+0x38>
    8d2f:	48 8d 05 55 5a 03 00 	lea    0x35a55(%rip),%rax        # 3e78b <_fini+0x907>
    8d36:	ba 05 00 00 00       	mov    $0x5,%edx
    8d3b:	48 89 f7             	mov    %rsi,%rdi
    8d3e:	48 89 c6             	mov    %rax,%rsi
    8d41:	ff 25 d1 5b 24 00    	jmpq   *0x245bd1(%rip)        # 24e918 <_GLOBAL_OFFSET_TABLE_+0x38>
    8d47:	48 8d 05 29 5a 03 00 	lea    0x35a29(%rip),%rax        # 3e777 <_fini+0x8f3>
    8d4e:	ba 07 00 00 00       	mov    $0x7,%edx
    8d53:	48 89 f7             	mov    %rsi,%rdi
    8d56:	48 89 c6             	mov    %rax,%rsi
    8d59:	ff 25 b9 5b 24 00    	jmpq   *0x245bb9(%rip)        # 24e918 <_GLOBAL_OFFSET_TABLE_+0x38>
    8d5f:	48 8d 05 d7 59 03 00 	lea    0x359d7(%rip),%rax        # 3e73d <_fini+0x8b9>
    8d66:	ba 05 00 00 00       	mov    $0x5,%edx
    8d6b:	48 89 f7             	mov    %rsi,%rdi
    8d6e:	48 89 c6             	mov    %rax,%rsi
    8d71:	ff 25 a1 5b 24 00    	jmpq   *0x245ba1(%rip)        # 24e918 <_GLOBAL_OFFSET_TABLE_+0x38>
    8d77:	48 8d 05 28 59 03 00 	lea    0x35928(%rip),%rax        # 3e6a6 <_fini+0x822>
    8d7e:	ba 06 00 00 00       	mov    $0x6,%edx
    8d83:	48 89 f7             	mov    %rsi,%rdi
    8d86:	48 89 c6             	mov    %rax,%rsi
    8d89:	ff 25 89 5b 24 00    	jmpq   *0x245b89(%rip)        # 24e918 <_GLOBAL_OFFSET_TABLE_+0x38>
    8d8f:	48 8d 05 17 57 03 00 	lea    0x35717(%rip),%rax        # 3e4ad <_fini+0x629>
    8d96:	ba 08 00 00 00       	mov    $0x8,%edx
    8d9b:	48 89 f7             	mov    %rsi,%rdi
    8d9e:	48 89 c6             	mov    %rax,%rsi
    8da1:	ff 25 71 5b 24 00    	jmpq   *0x245b71(%rip)        # 24e918 <_GLOBAL_OFFSET_TABLE_+0x38>
    8da7:	48 8d 05 f2 58 03 00 	lea    0x358f2(%rip),%rax        # 3e6a0 <_fini+0x81c>
    8dae:	ba 06 00 00 00       	mov    $0x6,%edx
    8db3:	48 89 f7             	mov    %rsi,%rdi
    8db6:	48 89 c6             	mov    %rax,%rsi
    8db9:	ff 25 59 5b 24 00    	jmpq   *0x245b59(%rip)        # 24e918 <_GLOBAL_OFFSET_TABLE_+0x38>
    8dbf:	48 8d 05 bb 58 03 00 	lea    0x358bb(%rip),%rax        # 3e681 <_fini+0x7fd>
    8dc6:	ba 06 00 00 00       	mov    $0x6,%edx
    8dcb:	48 89 f7             	mov    %rsi,%rdi
    8dce:	48 89 c6             	mov    %rax,%rsi
    8dd1:	ff 25 41 5b 24 00    	jmpq   *0x245b41(%rip)        # 24e918 <_GLOBAL_OFFSET_TABLE_+0x38>
    8dd7:	48 8d 05 8d 58 03 00 	lea    0x3588d(%rip),%rax        # 3e66b <_fini+0x7e7>
    8dde:	ba 06 00 00 00       	mov    $0x6,%edx
    8de3:	48 89 f7             	mov    %rsi,%rdi
    8de6:	48 89 c6             	mov    %rax,%rsi
    8de9:	ff 25 29 5b 24 00    	jmpq   *0x245b29(%rip)        # 24e918 <_GLOBAL_OFFSET_TABLE_+0x38>
    8def:	48 8d 05 67 58 03 00 	lea    0x35867(%rip),%rax        # 3e65d <_fini+0x7d9>
    8df6:	ba 07 00 00 00       	mov    $0x7,%edx
    8dfb:	48 89 f7             	mov    %rsi,%rdi
    8dfe:	48 89 c6             	mov    %rax,%rsi
    8e01:	ff 25 11 5b 24 00    	jmpq   *0x245b11(%rip)        # 24e918 <_GLOBAL_OFFSET_TABLE_+0x38>
    8e07:	48 8d 05 43 58 03 00 	lea    0x35843(%rip),%rax        # 3e651 <_fini+0x7cd>
    8e0e:	ba 06 00 00 00       	mov    $0x6,%edx
    8e13:	48 89 f7             	mov    %rsi,%rdi
    8e16:	48 89 c6             	mov    %rax,%rsi
    8e19:	ff 25 f9 5a 24 00    	jmpq   *0x245af9(%rip)        # 24e918 <_GLOBAL_OFFSET_TABLE_+0x38>
    8e1f:	48 8d 05 1a 58 03 00 	lea    0x3581a(%rip),%rax        # 3e640 <_fini+0x7bc>
    8e26:	ba 05 00 00 00       	mov    $0x5,%edx
    8e2b:	48 89 f7             	mov    %rsi,%rdi
    8e2e:	48 89 c6             	mov    %rax,%rsi
    8e31:	ff 25 e1 5a 24 00    	jmpq   *0x245ae1(%rip)        # 24e918 <_GLOBAL_OFFSET_TABLE_+0x38>
    8e37:	48 8d 05 e8 57 03 00 	lea    0x357e8(%rip),%rax        # 3e626 <_fini+0x7a2>
    8e3e:	ba 07 00 00 00       	mov    $0x7,%edx
    8e43:	48 89 f7             	mov    %rsi,%rdi
    8e46:	48 89 c6             	mov    %rax,%rsi
    8e49:	ff 25 c9 5a 24 00    	jmpq   *0x245ac9(%rip)        # 24e918 <_GLOBAL_OFFSET_TABLE_+0x38>
    8e4f:	48 8d 05 b6 57 03 00 	lea    0x357b6(%rip),%rax        # 3e60c <_fini+0x788>
    8e56:	ba 06 00 00 00       	mov    $0x6,%edx
    8e5b:	48 89 f7             	mov    %rsi,%rdi
    8e5e:	48 89 c6             	mov    %rax,%rsi
    8e61:	ff 25 b1 5a 24 00    	jmpq   *0x245ab1(%rip)        # 24e918 <_GLOBAL_OFFSET_TABLE_+0x38>
    8e67:	48 8d 05 93 57 03 00 	lea    0x35793(%rip),%rax        # 3e601 <_fini+0x77d>
    8e6e:	ba 06 00 00 00       	mov    $0x6,%edx
    8e73:	48 89 f7             	mov    %rsi,%rdi
    8e76:	48 89 c6             	mov    %rax,%rsi
    8e79:	ff 25 99 5a 24 00    	jmpq   *0x245a99(%rip)        # 24e918 <_GLOBAL_OFFSET_TABLE_+0x38>
    8e7f:	48 8d 05 64 57 03 00 	lea    0x35764(%rip),%rax        # 3e5ea <_fini+0x766>
    8e86:	ba 07 00 00 00       	mov    $0x7,%edx
    8e8b:	48 89 f7             	mov    %rsi,%rdi
    8e8e:	48 89 c6             	mov    %rax,%rsi
    8e91:	ff 25 81 5a 24 00    	jmpq   *0x245a81(%rip)        # 24e918 <_GLOBAL_OFFSET_TABLE_+0x38>
    8e97:	48 8d 05 36 57 03 00 	lea    0x35736(%rip),%rax        # 3e5d4 <_fini+0x750>
    8e9e:	ba 07 00 00 00       	mov    $0x7,%edx
    8ea3:	48 89 f7             	mov    %rsi,%rdi
    8ea6:	48 89 c6             	mov    %rax,%rsi
    8ea9:	ff 25 69 5a 24 00    	jmpq   *0x245a69(%rip)        # 24e918 <_GLOBAL_OFFSET_TABLE_+0x38>
    8eaf:	48 8d 05 17 57 03 00 	lea    0x35717(%rip),%rax        # 3e5cd <_fini+0x749>
    8eb6:	ba 07 00 00 00       	mov    $0x7,%edx
    8ebb:	48 89 f7             	mov    %rsi,%rdi
    8ebe:	48 89 c6             	mov    %rax,%rsi
    8ec1:	ff 25 51 5a 24 00    	jmpq   *0x245a51(%rip)        # 24e918 <_GLOBAL_OFFSET_TABLE_+0x38>
    8ec7:	48 8d 05 f8 56 03 00 	lea    0x356f8(%rip),%rax        # 3e5c6 <_fini+0x742>
    8ece:	ba 07 00 00 00       	mov    $0x7,%edx
    8ed3:	48 89 f7             	mov    %rsi,%rdi
    8ed6:	48 89 c6             	mov    %rax,%rsi
    8ed9:	ff 25 39 5a 24 00    	jmpq   *0x245a39(%rip)        # 24e918 <_GLOBAL_OFFSET_TABLE_+0x38>
    8edf:	48 8d 05 b7 55 03 00 	lea    0x355b7(%rip),%rax        # 3e49d <_fini+0x619>
    8ee6:	ba 08 00 00 00       	mov    $0x8,%edx
    8eeb:	48 89 f7             	mov    %rsi,%rdi
    8eee:	48 89 c6             	mov    %rax,%rsi
    8ef1:	ff 25 21 5a 24 00    	jmpq   *0x245a21(%rip)        # 24e918 <_GLOBAL_OFFSET_TABLE_+0x38>
    8ef7:	48 8d 05 ae 56 03 00 	lea    0x356ae(%rip),%rax        # 3e5ac <_fini+0x728>
    8efe:	ba 06 00 00 00       	mov    $0x6,%edx
    8f03:	48 89 f7             	mov    %rsi,%rdi
    8f06:	48 89 c6             	mov    %rax,%rsi
    8f09:	ff 25 09 5a 24 00    	jmpq   *0x245a09(%rip)        # 24e918 <_GLOBAL_OFFSET_TABLE_+0x38>
    8f0f:	48 8d 05 67 55 03 00 	lea    0x35567(%rip),%rax        # 3e47d <_fini+0x5f9>
    8f16:	ba 08 00 00 00       	mov    $0x8,%edx
    8f1b:	48 89 f7             	mov    %rsi,%rdi
    8f1e:	48 89 c6             	mov    %rax,%rsi
    8f21:	ff 25 f1 59 24 00    	jmpq   *0x2459f1(%rip)        # 24e918 <_GLOBAL_OFFSET_TABLE_+0x38>
    8f27:	48 8d 05 68 56 03 00 	lea    0x35668(%rip),%rax        # 3e596 <_fini+0x712>
    8f2e:	ba 0a 00 00 00       	mov    $0xa,%edx
    8f33:	48 89 f7             	mov    %rsi,%rdi
    8f36:	48 89 c6             	mov    %rax,%rsi
    8f39:	ff 25 d9 59 24 00    	jmpq   *0x2459d9(%rip)        # 24e918 <_GLOBAL_OFFSET_TABLE_+0x38>
    8f3f:	48 8d 05 45 56 03 00 	lea    0x35645(%rip),%rax        # 3e58b <_fini+0x707>
    8f46:	ba 0b 00 00 00       	mov    $0xb,%edx
    8f4b:	48 89 f7             	mov    %rsi,%rdi
    8f4e:	48 89 c6             	mov    %rax,%rsi
    8f51:	ff 25 c1 59 24 00    	jmpq   *0x2459c1(%rip)        # 24e918 <_GLOBAL_OFFSET_TABLE_+0x38>
    8f57:	48 8d 05 1e 56 03 00 	lea    0x3561e(%rip),%rax        # 3e57c <_fini+0x6f8>
    8f5e:	ba 0f 00 00 00       	mov    $0xf,%edx
    8f63:	48 89 f7             	mov    %rsi,%rdi
    8f66:	48 89 c6             	mov    %rax,%rsi
    8f69:	ff 25 a9 59 24 00    	jmpq   *0x2459a9(%rip)        # 24e918 <_GLOBAL_OFFSET_TABLE_+0x38>
    8f6f:	48 8d 05 f7 55 03 00 	lea    0x355f7(%rip),%rax        # 3e56d <_fini+0x6e9>
    8f76:	ba 0f 00 00 00       	mov    $0xf,%edx
    8f7b:	48 89 f7             	mov    %rsi,%rdi
    8f7e:	48 89 c6             	mov    %rax,%rsi
    8f81:	ff 25 91 59 24 00    	jmpq   *0x245991(%rip)        # 24e918 <_GLOBAL_OFFSET_TABLE_+0x38>
    8f87:	48 8d 05 e7 54 03 00 	lea    0x354e7(%rip),%rax        # 3e475 <_fini+0x5f1>
    8f8e:	ba 08 00 00 00       	mov    $0x8,%edx
    8f93:	48 89 f7             	mov    %rsi,%rdi
    8f96:	48 89 c6             	mov    %rax,%rsi
    8f99:	ff 25 79 59 24 00    	jmpq   *0x245979(%rip)        # 24e918 <_GLOBAL_OFFSET_TABLE_+0x38>
    8f9f:	48 8d 05 7a 55 03 00 	lea    0x3557a(%rip),%rax        # 3e520 <_fini+0x69c>
    8fa6:	ba 09 00 00 00       	mov    $0x9,%edx
    8fab:	48 89 f7             	mov    %rsi,%rdi
    8fae:	48 89 c6             	mov    %rax,%rsi
    8fb1:	ff 25 61 59 24 00    	jmpq   *0x245961(%rip)        # 24e918 <_GLOBAL_OFFSET_TABLE_+0x38>
    8fb7:	48 8d 05 56 55 03 00 	lea    0x35556(%rip),%rax        # 3e514 <_fini+0x690>
    8fbe:	ba 0c 00 00 00       	mov    $0xc,%edx
    8fc3:	48 89 f7             	mov    %rsi,%rdi
    8fc6:	48 89 c6             	mov    %rax,%rsi
    8fc9:	ff 25 49 59 24 00    	jmpq   *0x245949(%rip)        # 24e918 <_GLOBAL_OFFSET_TABLE_+0x38>
    8fcf:	48 8d 05 fc 54 03 00 	lea    0x354fc(%rip),%rax        # 3e4d2 <_fini+0x64e>
    8fd6:	ba 0c 00 00 00       	mov    $0xc,%edx
    8fdb:	48 89 f7             	mov    %rsi,%rdi
    8fde:	48 89 c6             	mov    %rax,%rsi
    8fe1:	ff 25 31 59 24 00    	jmpq   *0x245931(%rip)        # 24e918 <_GLOBAL_OFFSET_TABLE_+0x38>
    8fe7:	48 8d 05 cf 54 03 00 	lea    0x354cf(%rip),%rax        # 3e4bd <_fini+0x639>
    8fee:	ba 0c 00 00 00       	mov    $0xc,%edx
    8ff3:	48 89 f7             	mov    %rsi,%rdi
    8ff6:	48 89 c6             	mov    %rax,%rsi
    8ff9:	ff 25 19 59 24 00    	jmpq   *0x245919(%rip)        # 24e918 <_GLOBAL_OFFSET_TABLE_+0x38>
    8fff:	48 8d 05 54 54 03 00 	lea    0x35454(%rip),%rax        # 3e45a <_fini+0x5d6>
    9006:	ba 0b 00 00 00       	mov    $0xb,%edx
    900b:	48 89 f7             	mov    %rsi,%rdi
    900e:	48 89 c6             	mov    %rax,%rsi
    9011:	ff 25 01 59 24 00    	jmpq   *0x245901(%rip)        # 24e918 <_GLOBAL_OFFSET_TABLE_+0x38>
    9017:	48 8d 05 36 54 03 00 	lea    0x35436(%rip),%rax        # 3e454 <_fini+0x5d0>
    901e:	ba 06 00 00 00       	mov    $0x6,%edx
    9023:	48 89 f7             	mov    %rsi,%rdi
    9026:	48 89 c6             	mov    %rax,%rsi
    9029:	ff 25 e9 58 24 00    	jmpq   *0x2458e9(%rip)        # 24e918 <_GLOBAL_OFFSET_TABLE_+0x38>
    902f:	48 8d 05 10 54 03 00 	lea    0x35410(%rip),%rax        # 3e446 <_fini+0x5c2>
    9036:	ba 07 00 00 00       	mov    $0x7,%edx
    903b:	48 89 f7             	mov    %rsi,%rdi
    903e:	48 89 c6             	mov    %rax,%rsi
    9041:	ff 25 d1 58 24 00    	jmpq   *0x2458d1(%rip)        # 24e918 <_GLOBAL_OFFSET_TABLE_+0x38>
    9047:	48 8d 05 d3 53 03 00 	lea    0x353d3(%rip),%rax        # 3e421 <_fini+0x59d>
    904e:	ba 09 00 00 00       	mov    $0x9,%edx
    9053:	48 89 f7             	mov    %rsi,%rdi
    9056:	48 89 c6             	mov    %rax,%rsi
    9059:	ff 25 b9 58 24 00    	jmpq   *0x2458b9(%rip)        # 24e918 <_GLOBAL_OFFSET_TABLE_+0x38>
    905f:	48 8d 05 66 53 03 00 	lea    0x35366(%rip),%rax        # 3e3cc <_fini+0x548>
    9066:	ba 0f 00 00 00       	mov    $0xf,%edx
    906b:	48 89 f7             	mov    %rsi,%rdi
    906e:	48 89 c6             	mov    %rax,%rsi
    9071:	ff 25 a1 58 24 00    	jmpq   *0x2458a1(%rip)        # 24e918 <_GLOBAL_OFFSET_TABLE_+0x38>
    9077:	48 8d 05 3e 53 03 00 	lea    0x3533e(%rip),%rax        # 3e3bc <_fini+0x538>
    907e:	ba 09 00 00 00       	mov    $0x9,%edx
    9083:	48 89 f7             	mov    %rsi,%rdi
    9086:	48 89 c6             	mov    %rax,%rsi
    9089:	ff 25 89 58 24 00    	jmpq   *0x245889(%rip)        # 24e918 <_GLOBAL_OFFSET_TABLE_+0x38>
    908f:	48 8d 05 0a 57 03 00 	lea    0x3570a(%rip),%rax        # 3e7a0 <_fini+0x91c>
    9096:	ba 0c 00 00 00       	mov    $0xc,%edx
    909b:	48 89 f7             	mov    %rsi,%rdi
    909e:	48 89 c6             	mov    %rax,%rsi
    90a1:	ff 25 71 58 24 00    	jmpq   *0x245871(%rip)        # 24e918 <_GLOBAL_OFFSET_TABLE_+0x38>
    90a7:	48 8d 05 d5 56 03 00 	lea    0x356d5(%rip),%rax        # 3e783 <_fini+0x8ff>
    90ae:	ba 05 00 00 00       	mov    $0x5,%edx
    90b3:	48 89 f7             	mov    %rsi,%rdi
    90b6:	48 89 c6             	mov    %rax,%rsi
    90b9:	ff 25 59 58 24 00    	jmpq   *0x245859(%rip)        # 24e918 <_GLOBAL_OFFSET_TABLE_+0x38>
    90bf:	48 8d 05 b8 56 03 00 	lea    0x356b8(%rip),%rax        # 3e77e <_fini+0x8fa>
    90c6:	ba 05 00 00 00       	mov    $0x5,%edx
    90cb:	48 89 f7             	mov    %rsi,%rdi
    90ce:	48 89 c6             	mov    %rax,%rsi
    90d1:	ff 25 41 58 24 00    	jmpq   *0x245841(%rip)        # 24e918 <_GLOBAL_OFFSET_TABLE_+0x38>
    90d7:	48 8d 05 94 56 03 00 	lea    0x35694(%rip),%rax        # 3e772 <_fini+0x8ee>
    90de:	ba 05 00 00 00       	mov    $0x5,%edx
    90e3:	48 89 f7             	mov    %rsi,%rdi
    90e6:	48 89 c6             	mov    %rax,%rsi
    90e9:	ff 25 29 58 24 00    	jmpq   *0x245829(%rip)        # 24e918 <_GLOBAL_OFFSET_TABLE_+0x38>
    90ef:	48 8d 05 76 56 03 00 	lea    0x35676(%rip),%rax        # 3e76c <_fini+0x8e8>
    90f6:	ba 06 00 00 00       	mov    $0x6,%edx
    90fb:	48 89 f7             	mov    %rsi,%rdi
    90fe:	48 89 c6             	mov    %rax,%rsi
    9101:	ff 25 11 58 24 00    	jmpq   *0x245811(%rip)        # 24e918 <_GLOBAL_OFFSET_TABLE_+0x38>
    9107:	48 8d 05 4c 56 03 00 	lea    0x3564c(%rip),%rax        # 3e75a <_fini+0x8d6>
    910e:	ba 06 00 00 00       	mov    $0x6,%edx
    9113:	48 89 f7             	mov    %rsi,%rdi
    9116:	48 89 c6             	mov    %rax,%rsi
    9119:	ff 25 f9 57 24 00    	jmpq   *0x2457f9(%rip)        # 24e918 <_GLOBAL_OFFSET_TABLE_+0x38>
    911f:	48 8d 05 e0 55 03 00 	lea    0x355e0(%rip),%rax        # 3e706 <_fini+0x882>
    9126:	ba 05 00 00 00       	mov    $0x5,%edx
    912b:	48 89 f7             	mov    %rsi,%rdi
    912e:	48 89 c6             	mov    %rax,%rsi
    9131:	ff 25 e1 57 24 00    	jmpq   *0x2457e1(%rip)        # 24e918 <_GLOBAL_OFFSET_TABLE_+0x38>
    9137:	48 8d 05 b1 55 03 00 	lea    0x355b1(%rip),%rax        # 3e6ef <_fini+0x86b>
    913e:	ba 06 00 00 00       	mov    $0x6,%edx
    9143:	48 89 f7             	mov    %rsi,%rdi
    9146:	48 89 c6             	mov    %rax,%rsi
    9149:	ff 25 c9 57 24 00    	jmpq   *0x2457c9(%rip)        # 24e918 <_GLOBAL_OFFSET_TABLE_+0x38>
    914f:	48 8d 05 c0 54 03 00 	lea    0x354c0(%rip),%rax        # 3e616 <_fini+0x792>
    9156:	ba 04 00 00 00       	mov    $0x4,%edx
    915b:	48 89 f7             	mov    %rsi,%rdi
    915e:	48 89 c6             	mov    %rax,%rsi
    9161:	ff 25 b1 57 24 00    	jmpq   *0x2457b1(%rip)        # 24e918 <_GLOBAL_OFFSET_TABLE_+0x38>
    9167:	48 8d 05 4e 55 03 00 	lea    0x3554e(%rip),%rax        # 3e6bc <_fini+0x838>
    916e:	ba 09 00 00 00       	mov    $0x9,%edx
    9173:	48 89 f7             	mov    %rsi,%rdi
    9176:	48 89 c6             	mov    %rax,%rsi
    9179:	ff 25 99 57 24 00    	jmpq   *0x245799(%rip)        # 24e918 <_GLOBAL_OFFSET_TABLE_+0x38>
    917f:	48 8d 05 31 55 03 00 	lea    0x35531(%rip),%rax        # 3e6b7 <_fini+0x833>
    9186:	ba 05 00 00 00       	mov    $0x5,%edx
    918b:	48 89 f7             	mov    %rsi,%rdi
    918e:	48 89 c6             	mov    %rax,%rsi
    9191:	ff 25 81 57 24 00    	jmpq   *0x245781(%rip)        # 24e918 <_GLOBAL_OFFSET_TABLE_+0x38>
    9197:	48 8d 05 e9 54 03 00 	lea    0x354e9(%rip),%rax        # 3e687 <_fini+0x803>
    919e:	ba 06 00 00 00       	mov    $0x6,%edx
    91a3:	48 89 f7             	mov    %rsi,%rdi
    91a6:	48 89 c6             	mov    %rax,%rsi
    91a9:	ff 25 69 57 24 00    	jmpq   *0x245769(%rip)        # 24e918 <_GLOBAL_OFFSET_TABLE_+0x38>
    91af:	48 8d 05 8f 54 03 00 	lea    0x3548f(%rip),%rax        # 3e645 <_fini+0x7c1>
    91b6:	ba 05 00 00 00       	mov    $0x5,%edx
    91bb:	48 89 f7             	mov    %rsi,%rdi
    91be:	48 89 c6             	mov    %rax,%rsi
    91c1:	ff 25 51 57 24 00    	jmpq   *0x245751(%rip)        # 24e918 <_GLOBAL_OFFSET_TABLE_+0x38>
    91c7:	48 8d 05 6c 54 03 00 	lea    0x3546c(%rip),%rax        # 3e63a <_fini+0x7b6>
    91ce:	ba 06 00 00 00       	mov    $0x6,%edx
    91d3:	48 89 f7             	mov    %rsi,%rdi
    91d6:	48 89 c6             	mov    %rax,%rsi
    91d9:	ff 25 39 57 24 00    	jmpq   *0x245739(%rip)        # 24e918 <_GLOBAL_OFFSET_TABLE_+0x38>
    91df:	48 8d 05 4e 54 03 00 	lea    0x3544e(%rip),%rax        # 3e634 <_fini+0x7b0>
    91e6:	ba 06 00 00 00       	mov    $0x6,%edx
    91eb:	48 89 f7             	mov    %rsi,%rdi
    91ee:	48 89 c6             	mov    %rax,%rsi
    91f1:	ff 25 21 57 24 00    	jmpq   *0x245721(%rip)        # 24e918 <_GLOBAL_OFFSET_TABLE_+0x38>
    91f7:	48 8d 05 2f 54 03 00 	lea    0x3542f(%rip),%rax        # 3e62d <_fini+0x7a9>
    91fe:	ba 07 00 00 00       	mov    $0x7,%edx
    9203:	48 89 f7             	mov    %rsi,%rdi
    9206:	48 89 c6             	mov    %rax,%rsi
    9209:	ff 25 09 57 24 00    	jmpq   *0x245709(%rip)        # 24e918 <_GLOBAL_OFFSET_TABLE_+0x38>
    920f:	48 8d 05 fc 53 03 00 	lea    0x353fc(%rip),%rax        # 3e612 <_fini+0x78e>
    9216:	ba 04 00 00 00       	mov    $0x4,%edx
    921b:	48 89 f7             	mov    %rsi,%rdi
    921e:	48 89 c6             	mov    %rax,%rsi
    9221:	ff 25 f1 56 24 00    	jmpq   *0x2456f1(%rip)        # 24e918 <_GLOBAL_OFFSET_TABLE_+0x38>
    9227:	48 8d 05 d9 53 03 00 	lea    0x353d9(%rip),%rax        # 3e607 <_fini+0x783>
    922e:	ba 05 00 00 00       	mov    $0x5,%edx
    9233:	48 89 f7             	mov    %rsi,%rdi
    9236:	48 89 c6             	mov    %rax,%rsi
    9239:	ff 25 d9 56 24 00    	jmpq   *0x2456d9(%rip)        # 24e918 <_GLOBAL_OFFSET_TABLE_+0x38>
    923f:	48 8d 05 ab 53 03 00 	lea    0x353ab(%rip),%rax        # 3e5f1 <_fini+0x76d>
    9246:	ba 07 00 00 00       	mov    $0x7,%edx
    924b:	48 89 f7             	mov    %rsi,%rdi
    924e:	48 89 c6             	mov    %rax,%rsi
    9251:	ff 25 c1 56 24 00    	jmpq   *0x2456c1(%rip)        # 24e918 <_GLOBAL_OFFSET_TABLE_+0x38>
    9257:	48 8d 05 5a 53 03 00 	lea    0x3535a(%rip),%rax        # 3e5b8 <_fini+0x734>
    925e:	ba 07 00 00 00       	mov    $0x7,%edx
    9263:	48 89 f7             	mov    %rsi,%rdi
    9266:	48 89 c6             	mov    %rax,%rsi
    9269:	ff 25 a9 56 24 00    	jmpq   *0x2456a9(%rip)        # 24e918 <_GLOBAL_OFFSET_TABLE_+0x38>
    926f:	48 8d 05 1f 52 03 00 	lea    0x3521f(%rip),%rax        # 3e495 <_fini+0x611>
    9276:	ba 08 00 00 00       	mov    $0x8,%edx
    927b:	48 89 f7             	mov    %rsi,%rdi
    927e:	48 89 c6             	mov    %rax,%rsi
    9281:	ff 25 91 56 24 00    	jmpq   *0x245691(%rip)        # 24e918 <_GLOBAL_OFFSET_TABLE_+0x38>
    9287:	48 8d 05 ff 51 03 00 	lea    0x351ff(%rip),%rax        # 3e48d <_fini+0x609>
    928e:	ba 08 00 00 00       	mov    $0x8,%edx
    9293:	48 89 f7             	mov    %rsi,%rdi
    9296:	48 89 c6             	mov    %rax,%rsi
    9299:	ff 25 79 56 24 00    	jmpq   *0x245679(%rip)        # 24e918 <_GLOBAL_OFFSET_TABLE_+0x38>
    929f:	48 8d 05 df 51 03 00 	lea    0x351df(%rip),%rax        # 3e485 <_fini+0x601>
    92a6:	ba 08 00 00 00       	mov    $0x8,%edx
    92ab:	48 89 f7             	mov    %rsi,%rdi
    92ae:	48 89 c6             	mov    %rax,%rsi
    92b1:	ff 25 61 56 24 00    	jmpq   *0x245661(%rip)        # 24e918 <_GLOBAL_OFFSET_TABLE_+0x38>
    92b7:	48 8d 05 e2 52 03 00 	lea    0x352e2(%rip),%rax        # 3e5a0 <_fini+0x71c>
    92be:	ba 0c 00 00 00       	mov    $0xc,%edx
    92c3:	48 89 f7             	mov    %rsi,%rdi
    92c6:	48 89 c6             	mov    %rax,%rsi
    92c9:	ff 25 49 56 24 00    	jmpq   *0x245649(%rip)        # 24e918 <_GLOBAL_OFFSET_TABLE_+0x38>
    92cf:	48 8d 05 8d 52 03 00 	lea    0x3528d(%rip),%rax        # 3e563 <_fini+0x6df>
    92d6:	ba 0a 00 00 00       	mov    $0xa,%edx
    92db:	48 89 f7             	mov    %rsi,%rdi
    92de:	48 89 c6             	mov    %rax,%rsi
    92e1:	ff 25 31 56 24 00    	jmpq   *0x245631(%rip)        # 24e918 <_GLOBAL_OFFSET_TABLE_+0x38>
    92e7:	48 8d 05 69 52 03 00 	lea    0x35269(%rip),%rax        # 3e557 <_fini+0x6d3>
    92ee:	ba 0c 00 00 00       	mov    $0xc,%edx
    92f3:	48 89 f7             	mov    %rsi,%rdi
    92f6:	48 89 c6             	mov    %rax,%rsi
    92f9:	ff 25 19 56 24 00    	jmpq   *0x245619(%rip)        # 24e918 <_GLOBAL_OFFSET_TABLE_+0x38>
    92ff:	48 8d 05 45 52 03 00 	lea    0x35245(%rip),%rax        # 3e54b <_fini+0x6c7>
    9306:	ba 0c 00 00 00       	mov    $0xc,%edx
    930b:	48 89 f7             	mov    %rsi,%rdi
    930e:	48 89 c6             	mov    %rax,%rsi
    9311:	ff 25 01 56 24 00    	jmpq   *0x245601(%rip)        # 24e918 <_GLOBAL_OFFSET_TABLE_+0x38>
    9317:	48 8d 05 23 52 03 00 	lea    0x35223(%rip),%rax        # 3e541 <_fini+0x6bd>
    931e:	ba 0a 00 00 00       	mov    $0xa,%edx
    9323:	48 89 f7             	mov    %rsi,%rdi
    9326:	48 89 c6             	mov    %rax,%rsi
    9329:	ff 25 e9 55 24 00    	jmpq   *0x2455e9(%rip)        # 24e918 <_GLOBAL_OFFSET_TABLE_+0x38>
    932f:	48 8d 05 fe 51 03 00 	lea    0x351fe(%rip),%rax        # 3e534 <_fini+0x6b0>
    9336:	ba 0d 00 00 00       	mov    $0xd,%edx
    933b:	48 89 f7             	mov    %rsi,%rdi
    933e:	48 89 c6             	mov    %rax,%rsi
    9341:	ff 25 d1 55 24 00    	jmpq   *0x2455d1(%rip)        # 24e918 <_GLOBAL_OFFSET_TABLE_+0x38>
    9347:	48 8d 05 db 51 03 00 	lea    0x351db(%rip),%rax        # 3e529 <_fini+0x6a5>
    934e:	ba 0b 00 00 00       	mov    $0xb,%edx
    9353:	48 89 f7             	mov    %rsi,%rdi
    9356:	48 89 c6             	mov    %rax,%rsi
    9359:	ff 25 b9 55 24 00    	jmpq   *0x2455b9(%rip)        # 24e918 <_GLOBAL_OFFSET_TABLE_+0x38>
    935f:	48 8d 05 a4 51 03 00 	lea    0x351a4(%rip),%rax        # 3e50a <_fini+0x686>
    9366:	ba 0a 00 00 00       	mov    $0xa,%edx
    936b:	48 89 f7             	mov    %rsi,%rdi
    936e:	48 89 c6             	mov    %rax,%rsi
    9371:	ff 25 a1 55 24 00    	jmpq   *0x2455a1(%rip)        # 24e918 <_GLOBAL_OFFSET_TABLE_+0x38>
    9377:	48 8d 05 85 51 03 00 	lea    0x35185(%rip),%rax        # 3e503 <_fini+0x67f>
    937e:	ba 07 00 00 00       	mov    $0x7,%edx
    9383:	48 89 f7             	mov    %rsi,%rdi
    9386:	48 89 c6             	mov    %rax,%rsi
    9389:	ff 25 89 55 24 00    	jmpq   *0x245589(%rip)        # 24e918 <_GLOBAL_OFFSET_TABLE_+0x38>
    938f:	48 8d 05 66 51 03 00 	lea    0x35166(%rip),%rax        # 3e4fc <_fini+0x678>
    9396:	ba 07 00 00 00       	mov    $0x7,%edx
    939b:	48 89 f7             	mov    %rsi,%rdi
    939e:	48 89 c6             	mov    %rax,%rsi
    93a1:	ff 25 71 55 24 00    	jmpq   *0x245571(%rip)        # 24e918 <_GLOBAL_OFFSET_TABLE_+0x38>
    93a7:	48 8d 05 bf 50 03 00 	lea    0x350bf(%rip),%rax        # 3e46d <_fini+0x5e9>
    93ae:	ba 08 00 00 00       	mov    $0x8,%edx
    93b3:	48 89 f7             	mov    %rsi,%rdi
    93b6:	48 89 c6             	mov    %rax,%rsi
    93b9:	ff 25 59 55 24 00    	jmpq   *0x245559(%rip)        # 24e918 <_GLOBAL_OFFSET_TABLE_+0x38>
    93bf:	48 8d 05 2d 51 03 00 	lea    0x3512d(%rip),%rax        # 3e4f3 <_fini+0x66f>
    93c6:	ba 09 00 00 00       	mov    $0x9,%edx
    93cb:	48 89 f7             	mov    %rsi,%rdi
    93ce:	48 89 c6             	mov    %rax,%rsi
    93d1:	ff 25 41 55 24 00    	jmpq   *0x245541(%rip)        # 24e918 <_GLOBAL_OFFSET_TABLE_+0x38>
    93d7:	48 8d 05 09 51 03 00 	lea    0x35109(%rip),%rax        # 3e4e7 <_fini+0x663>
    93de:	ba 0c 00 00 00       	mov    $0xc,%edx
    93e3:	48 89 f7             	mov    %rsi,%rdi
    93e6:	48 89 c6             	mov    %rax,%rsi
    93e9:	ff 25 29 55 24 00    	jmpq   *0x245529(%rip)        # 24e918 <_GLOBAL_OFFSET_TABLE_+0x38>
    93ef:	48 8d 05 e8 50 03 00 	lea    0x350e8(%rip),%rax        # 3e4de <_fini+0x65a>
    93f6:	ba 09 00 00 00       	mov    $0x9,%edx
    93fb:	48 89 f7             	mov    %rsi,%rdi
    93fe:	48 89 c6             	mov    %rax,%rsi
    9401:	ff 25 11 55 24 00    	jmpq   *0x245511(%rip)        # 24e918 <_GLOBAL_OFFSET_TABLE_+0x38>
    9407:	48 8d 05 bb 50 03 00 	lea    0x350bb(%rip),%rax        # 3e4c9 <_fini+0x645>
    940e:	ba 09 00 00 00       	mov    $0x9,%edx
    9413:	48 89 f7             	mov    %rsi,%rdi
    9416:	48 89 c6             	mov    %rax,%rsi
    9419:	ff 25 f9 54 24 00    	jmpq   *0x2454f9(%rip)        # 24e918 <_GLOBAL_OFFSET_TABLE_+0x38>
    941f:	48 8d 05 3f 50 03 00 	lea    0x3503f(%rip),%rax        # 3e465 <_fini+0x5e1>
    9426:	ba 08 00 00 00       	mov    $0x8,%edx
    942b:	48 89 f7             	mov    %rsi,%rdi
    942e:	48 89 c6             	mov    %rax,%rsi
    9431:	ff 25 e1 54 24 00    	jmpq   *0x2454e1(%rip)        # 24e918 <_GLOBAL_OFFSET_TABLE_+0x38>
    9437:	48 8d 05 0f 50 03 00 	lea    0x3500f(%rip),%rax        # 3e44d <_fini+0x5c9>
    943e:	ba 07 00 00 00       	mov    $0x7,%edx
    9443:	48 89 f7             	mov    %rsi,%rdi
    9446:	48 89 c6             	mov    %rax,%rsi
    9449:	ff 25 c9 54 24 00    	jmpq   *0x2454c9(%rip)        # 24e918 <_GLOBAL_OFFSET_TABLE_+0x38>
    944f:	48 8d 05 e9 4f 03 00 	lea    0x34fe9(%rip),%rax        # 3e43f <_fini+0x5bb>
    9456:	ba 07 00 00 00       	mov    $0x7,%edx
    945b:	48 89 f7             	mov    %rsi,%rdi
    945e:	48 89 c6             	mov    %rax,%rsi
    9461:	ff 25 b1 54 24 00    	jmpq   *0x2454b1(%rip)        # 24e918 <_GLOBAL_OFFSET_TABLE_+0x38>
    9467:	48 8d 05 cb 4f 03 00 	lea    0x34fcb(%rip),%rax        # 3e439 <_fini+0x5b5>
    946e:	ba 06 00 00 00       	mov    $0x6,%edx
    9473:	48 89 f7             	mov    %rsi,%rdi
    9476:	48 89 c6             	mov    %rax,%rsi
    9479:	ff 25 99 54 24 00    	jmpq   *0x245499(%rip)        # 24e918 <_GLOBAL_OFFSET_TABLE_+0x38>
    947f:	48 8d 05 aa 4f 03 00 	lea    0x34faa(%rip),%rax        # 3e430 <_fini+0x5ac>
    9486:	ba 09 00 00 00       	mov    $0x9,%edx
    948b:	48 89 f7             	mov    %rsi,%rdi
    948e:	48 89 c6             	mov    %rax,%rsi
    9491:	ff 25 81 54 24 00    	jmpq   *0x245481(%rip)        # 24e918 <_GLOBAL_OFFSET_TABLE_+0x38>
    9497:	48 8d 05 8c 4f 03 00 	lea    0x34f8c(%rip),%rax        # 3e42a <_fini+0x5a6>
    949e:	ba 06 00 00 00       	mov    $0x6,%edx
    94a3:	48 89 f7             	mov    %rsi,%rdi
    94a6:	48 89 c6             	mov    %rax,%rsi
    94a9:	ff 25 69 54 24 00    	jmpq   *0x245469(%rip)        # 24e918 <_GLOBAL_OFFSET_TABLE_+0x38>
    94af:	48 8d 05 60 4f 03 00 	lea    0x34f60(%rip),%rax        # 3e416 <_fini+0x592>
    94b6:	ba 0b 00 00 00       	mov    $0xb,%edx
    94bb:	48 89 f7             	mov    %rsi,%rdi
    94be:	48 89 c6             	mov    %rax,%rsi
    94c1:	ff 25 51 54 24 00    	jmpq   *0x245451(%rip)        # 24e918 <_GLOBAL_OFFSET_TABLE_+0x38>
    94c7:	48 8d 05 3f 4f 03 00 	lea    0x34f3f(%rip),%rax        # 3e40d <_fini+0x589>
    94ce:	ba 09 00 00 00       	mov    $0x9,%edx
    94d3:	48 89 f7             	mov    %rsi,%rdi
    94d6:	48 89 c6             	mov    %rax,%rsi
    94d9:	ff 25 39 54 24 00    	jmpq   *0x245439(%rip)        # 24e918 <_GLOBAL_OFFSET_TABLE_+0x38>
    94df:	48 8d 05 21 4f 03 00 	lea    0x34f21(%rip),%rax        # 3e407 <_fini+0x583>
    94e6:	ba 06 00 00 00       	mov    $0x6,%edx
    94eb:	48 89 f7             	mov    %rsi,%rdi
    94ee:	48 89 c6             	mov    %rax,%rsi
    94f1:	ff 25 21 54 24 00    	jmpq   *0x245421(%rip)        # 24e918 <_GLOBAL_OFFSET_TABLE_+0x38>
    94f7:	48 8d 05 fe 4e 03 00 	lea    0x34efe(%rip),%rax        # 3e3fc <_fini+0x578>
    94fe:	ba 0b 00 00 00       	mov    $0xb,%edx
    9503:	48 89 f7             	mov    %rsi,%rdi
    9506:	48 89 c6             	mov    %rax,%rsi
    9509:	ff 25 09 54 24 00    	jmpq   *0x245409(%rip)        # 24e918 <_GLOBAL_OFFSET_TABLE_+0x38>
    950f:	48 8d 05 85 52 03 00 	lea    0x35285(%rip),%rax        # 3e79b <_fini+0x917>
    9516:	ba 05 00 00 00       	mov    $0x5,%edx
    951b:	48 89 f7             	mov    %rsi,%rdi
    951e:	48 89 c6             	mov    %rax,%rsi
    9521:	ff 25 f1 53 24 00    	jmpq   *0x2453f1(%rip)        # 24e918 <_GLOBAL_OFFSET_TABLE_+0x38>
    9527:	48 8d 05 26 52 03 00 	lea    0x35226(%rip),%rax        # 3e754 <_fini+0x8d0>
    952e:	ba 06 00 00 00       	mov    $0x6,%edx
    9533:	48 89 f7             	mov    %rsi,%rdi
    9536:	48 89 c6             	mov    %rax,%rsi
    9539:	ff 25 d9 53 24 00    	jmpq   *0x2453d9(%rip)        # 24e918 <_GLOBAL_OFFSET_TABLE_+0x38>
    953f:	48 8d 05 e4 51 03 00 	lea    0x351e4(%rip),%rax        # 3e72a <_fini+0x8a6>
    9546:	ba 06 00 00 00       	mov    $0x6,%edx
    954b:	48 89 f7             	mov    %rsi,%rdi
    954e:	48 89 c6             	mov    %rax,%rsi
    9551:	ff 25 c1 53 24 00    	jmpq   *0x2453c1(%rip)        # 24e918 <_GLOBAL_OFFSET_TABLE_+0x38>
    9557:	48 8d 05 c6 51 03 00 	lea    0x351c6(%rip),%rax        # 3e724 <_fini+0x8a0>
    955e:	ba 06 00 00 00       	mov    $0x6,%edx
    9563:	48 89 f7             	mov    %rsi,%rdi
    9566:	48 89 c6             	mov    %rax,%rsi
    9569:	ff 25 a9 53 24 00    	jmpq   *0x2453a9(%rip)        # 24e918 <_GLOBAL_OFFSET_TABLE_+0x38>
    956f:	48 8d 05 a2 51 03 00 	lea    0x351a2(%rip),%rax        # 3e718 <_fini+0x894>
    9576:	ba 06 00 00 00       	mov    $0x6,%edx
    957b:	48 89 f7             	mov    %rsi,%rdi
    957e:	48 89 c6             	mov    %rax,%rsi
    9581:	ff 25 91 53 24 00    	jmpq   *0x245391(%rip)        # 24e918 <_GLOBAL_OFFSET_TABLE_+0x38>
    9587:	48 8d 05 37 51 03 00 	lea    0x35137(%rip),%rax        # 3e6c5 <_fini+0x841>
    958e:	ba 06 00 00 00       	mov    $0x6,%edx
    9593:	48 89 f7             	mov    %rsi,%rdi
    9596:	48 89 c6             	mov    %rax,%rsi
    9599:	ff 25 79 53 24 00    	jmpq   *0x245379(%rip)        # 24e918 <_GLOBAL_OFFSET_TABLE_+0x38>
    959f:	48 8d 05 ee 50 03 00 	lea    0x350ee(%rip),%rax        # 3e694 <_fini+0x810>
    95a6:	ba 06 00 00 00       	mov    $0x6,%edx
    95ab:	48 89 f7             	mov    %rsi,%rdi
    95ae:	48 89 c6             	mov    %rax,%rsi
    95b1:	ff 25 61 53 24 00    	jmpq   *0x245361(%rip)        # 24e918 <_GLOBAL_OFFSET_TABLE_+0x38>
    95b7:	48 8d 05 be 50 03 00 	lea    0x350be(%rip),%rax        # 3e67c <_fini+0x7f8>
    95be:	ba 05 00 00 00       	mov    $0x5,%edx
    95c3:	48 89 f7             	mov    %rsi,%rdi
    95c6:	48 89 c6             	mov    %rax,%rsi
    95c9:	ff 25 49 53 24 00    	jmpq   *0x245349(%rip)        # 24e918 <_GLOBAL_OFFSET_TABLE_+0x38>
    95cf:	48 8d 05 a1 50 03 00 	lea    0x350a1(%rip),%rax        # 3e677 <_fini+0x7f3>
    95d6:	ba 05 00 00 00       	mov    $0x5,%edx
    95db:	48 89 f7             	mov    %rsi,%rdi
    95de:	48 89 c6             	mov    %rax,%rsi
    95e1:	ff 25 31 53 24 00    	jmpq   *0x245331(%rip)        # 24e918 <_GLOBAL_OFFSET_TABLE_+0x38>
    95e7:	48 8d 05 83 50 03 00 	lea    0x35083(%rip),%rax        # 3e671 <_fini+0x7ed>
    95ee:	ba 06 00 00 00       	mov    $0x6,%edx
    95f3:	48 89 f7             	mov    %rsi,%rdi
    95f6:	48 89 c6             	mov    %rax,%rsi
    95f9:	ff 25 19 53 24 00    	jmpq   *0x245319(%rip)        # 24e918 <_GLOBAL_OFFSET_TABLE_+0x38>
    95ff:	48 8d 05 51 50 03 00 	lea    0x35051(%rip),%rax        # 3e657 <_fini+0x7d3>
    9606:	ba 06 00 00 00       	mov    $0x6,%edx
    960b:	48 89 f7             	mov    %rsi,%rdi
    960e:	48 89 c6             	mov    %rax,%rsi
    9611:	ff 25 01 53 24 00    	jmpq   *0x245301(%rip)        # 24e918 <_GLOBAL_OFFSET_TABLE_+0x38>
    9617:	48 8d 05 da 4f 03 00 	lea    0x34fda(%rip),%rax        # 3e5f8 <_fini+0x774>
    961e:	ba 09 00 00 00       	mov    $0x9,%edx
    9623:	48 89 f7             	mov    %rsi,%rdi
    9626:	48 89 c6             	mov    %rax,%rsi
    9629:	ff 25 e9 52 24 00    	jmpq   *0x2452e9(%rip)        # 24e918 <_GLOBAL_OFFSET_TABLE_+0x38>
    962f:	48 8d 05 ab 4f 03 00 	lea    0x34fab(%rip),%rax        # 3e5e1 <_fini+0x75d>
    9636:	ba 09 00 00 00       	mov    $0x9,%edx
    963b:	48 89 f7             	mov    %rsi,%rdi
    963e:	48 89 c6             	mov    %rax,%rsi
    9641:	ff 25 d1 52 24 00    	jmpq   *0x2452d1(%rip)        # 24e918 <_GLOBAL_OFFSET_TABLE_+0x38>
    9647:	48 8d 05 57 4e 03 00 	lea    0x34e57(%rip),%rax        # 3e4a5 <_fini+0x621>
    964e:	ba 08 00 00 00       	mov    $0x8,%edx
    9653:	48 89 f7             	mov    %rsi,%rdi
    9656:	48 89 c6             	mov    %rax,%rsi
    9659:	ff 25 b9 52 24 00    	jmpq   *0x2452b9(%rip)        # 24e918 <_GLOBAL_OFFSET_TABLE_+0x38>
    965f:	48 8d 05 59 4f 03 00 	lea    0x34f59(%rip),%rax        # 3e5bf <_fini+0x73b>
    9666:	ba 07 00 00 00       	mov    $0x7,%edx
    966b:	48 89 f7             	mov    %rsi,%rdi
    966e:	48 89 c6             	mov    %rax,%rsi
    9671:	ff 25 a1 52 24 00    	jmpq   *0x2452a1(%rip)        # 24e918 <_GLOBAL_OFFSET_TABLE_+0x38>
    9677:	48 8d 05 94 50 03 00 	lea    0x35094(%rip),%rax        # 3e712 <_fini+0x88e>
    967e:	ba 06 00 00 00       	mov    $0x6,%edx
    9683:	48 89 f7             	mov    %rsi,%rdi
    9686:	48 89 c6             	mov    %rax,%rsi
    9689:	ff 25 89 52 24 00    	jmpq   *0x245289(%rip)        # 24e918 <_GLOBAL_OFFSET_TABLE_+0x38>
    968f:	48 8d 05 6a 50 03 00 	lea    0x3506a(%rip),%rax        # 3e700 <_fini+0x87c>
    9696:	ba 06 00 00 00       	mov    $0x6,%edx
    969b:	48 89 f7             	mov    %rsi,%rdi
    969e:	48 89 c6             	mov    %rax,%rsi
    96a1:	ff 25 71 52 24 00    	jmpq   *0x245271(%rip)        # 24e918 <_GLOBAL_OFFSET_TABLE_+0x38>
    96a7:	48 8d 05 47 50 03 00 	lea    0x35047(%rip),%rax        # 3e6f5 <_fini+0x871>
    96ae:	ba 05 00 00 00       	mov    $0x5,%edx
    96b3:	48 89 f7             	mov    %rsi,%rdi
    96b6:	48 89 c6             	mov    %rax,%rsi
    96b9:	ff 25 59 52 24 00    	jmpq   *0x245259(%rip)        # 24e918 <_GLOBAL_OFFSET_TABLE_+0x38>
    96bf:	48 8d 05 17 50 03 00 	lea    0x35017(%rip),%rax        # 3e6dd <_fini+0x859>
    96c6:	ba 07 00 00 00       	mov    $0x7,%edx
    96cb:	48 89 f7             	mov    %rsi,%rdi
    96ce:	48 89 c6             	mov    %rax,%rsi
    96d1:	ff 25 41 52 24 00    	jmpq   *0x245241(%rip)        # 24e918 <_GLOBAL_OFFSET_TABLE_+0x38>
    96d7:	48 8d 05 f3 4f 03 00 	lea    0x34ff3(%rip),%rax        # 3e6d1 <_fini+0x84d>
    96de:	ba 0c 00 00 00       	mov    $0xc,%edx
    96e3:	48 89 f7             	mov    %rsi,%rdi
    96e6:	48 89 c6             	mov    %rax,%rsi
    96e9:	ff 25 29 52 24 00    	jmpq   *0x245229(%rip)        # 24e918 <_GLOBAL_OFFSET_TABLE_+0x38>
    96ef:	48 8d 05 15 50 03 00 	lea    0x35015(%rip),%rax        # 3e70b <_fini+0x887>
    96f6:	ba 07 00 00 00       	mov    $0x7,%edx
    96fb:	48 89 f7             	mov    %rsi,%rdi
    96fe:	48 89 c6             	mov    %rax,%rsi
    9701:	ff 25 11 52 24 00    	jmpq   *0x245211(%rip)        # 24e918 <_GLOBAL_OFFSET_TABLE_+0x38>
    9707:	0f 0b                	ud2    
    9709:	0f 1f 80 00 00 00 00 	nopl   0x0(%rax)

0000000000009710 <_ZN3std10sys_common9backtrace26__rust_end_short_backtrace17h88d8f6d3bab2646dE>:
    9710:	50                   	push   %rax
    9711:	48 8b 07             	mov    (%rdi),%rax
    9714:	48 8b 77 08          	mov    0x8(%rdi),%rsi
    9718:	48 8b 57 10          	mov    0x10(%rdi),%rdx
    971c:	48 89 c7             	mov    %rax,%rdi
    971f:	e8 0c 00 00 00       	callq  9730 <_ZN3std9panicking11begin_panic28_$u7b$$u7b$closure$u7d$$u7d$17h0d7195dc1b8f9f7cE>
    9724:	0f 0b                	ud2    
    9726:	66 2e 0f 1f 84 00 00 	nopw   %cs:0x0(%rax,%rax,1)
    972d:	00 00 00 

0000000000009730 <_ZN3std9panicking11begin_panic28_$u7b$$u7b$closure$u7d$$u7d$17h0d7195dc1b8f9f7cE>:
    9730:	48 83 ec 18          	sub    $0x18,%rsp
    9734:	48 89 d1             	mov    %rdx,%rcx
    9737:	48 89 7c 24 08       	mov    %rdi,0x8(%rsp)
    973c:	48 89 74 24 10       	mov    %rsi,0x10(%rsp)
    9741:	48 8d 35 38 29 24 00 	lea    0x242938(%rip),%rsi        # 24c080 <anon.301c5d4cbd7f8c5b61df91e2cad8fefb.0.llvm.13767110465242657722+0x248>
    9748:	48 8d 7c 24 08       	lea    0x8(%rsp),%rdi
    974d:	31 d2                	xor    %edx,%edx
    974f:	41 b8 01 00 00 00    	mov    $0x1,%r8d
    9755:	ff 15 15 55 24 00    	callq  *0x245515(%rip)        # 24ec70 <_GLOBAL_OFFSET_TABLE_+0x390>
    975b:	0f 0b                	ud2    
    975d:	0f 1f 00             	nopl   (%rax)

0000000000009760 <_ZN66_$LT$nix..sys..time..TimeSpec$u20$as$u20$core..ops..arith..Sub$GT$3sub17h3d66a412f641872bE>:
    9760:	48 85 ff             	test   %rdi,%rdi
    9763:	41 0f 98 c0          	sets   %r8b
    9767:	48 85 f6             	test   %rsi,%rsi
    976a:	0f 9f c0             	setg   %al
    976d:	44 20 c0             	and    %r8b,%al
    9770:	44 0f b6 c8          	movzbl %al,%r9d
    9774:	4c 8d 86 00 36 65 c4 	lea    -0x3b9aca00(%rsi),%r8
    977b:	45 84 c9             	test   %r9b,%r9b
    977e:	4c 0f 44 c6          	cmove  %rsi,%r8
    9782:	48 85 d2             	test   %rdx,%rdx
    9785:	40 0f 98 c6          	sets   %sil
    9789:	48 85 c9             	test   %rcx,%rcx
    978c:	0f 9f c0             	setg   %al
    978f:	40 20 f0             	and    %sil,%al
    9792:	48 8d b1 00 36 65 c4 	lea    -0x3b9aca00(%rcx),%rsi
    9799:	84 c0                	test   %al,%al
    979b:	48 0f 44 f1          	cmove  %rcx,%rsi
    979f:	48 29 d7             	sub    %rdx,%rdi
    97a2:	4c 01 cf             	add    %r9,%rdi
    97a5:	0f b6 c0             	movzbl %al,%eax
    97a8:	48 29 c7             	sub    %rax,%rdi
    97ab:	48 69 c7 00 ca 9a 3b 	imul   $0x3b9aca00,%rdi,%rax
    97b2:	49 29 f0             	sub    %rsi,%r8
    97b5:	49 01 c0             	add    %rax,%r8
    97b8:	48 b9 b3 94 d6 26 e8 	movabs $0x112e0be826d694b3,%rcx
    97bf:	0b 2e 11 
    97c2:	4c 89 c0             	mov    %r8,%rax
    97c5:	48 f7 e9             	imul   %rcx
    97c8:	48 89 d0             	mov    %rdx,%rax
    97cb:	48 c1 e8 3f          	shr    $0x3f,%rax
    97cf:	48 c1 fa 1a          	sar    $0x1a,%rdx
    97d3:	48 01 c2             	add    %rax,%rdx
    97d6:	48 69 c2 00 ca 9a 3b 	imul   $0x3b9aca00,%rdx,%rax
    97dd:	49 29 c0             	sub    %rax,%r8
    97e0:	4c 89 c1             	mov    %r8,%rcx
    97e3:	48 c1 f9 3f          	sar    $0x3f,%rcx
    97e7:	48 01 ca             	add    %rcx,%rdx
    97ea:	48 b8 fc 82 3e da fd 	movabs $0xfffffffdda3e82fc,%rax
    97f1:	ff ff ff 
    97f4:	48 01 d0             	add    %rdx,%rax
    97f7:	48 be f8 05 7d b4 fb 	movabs $0xfffffffbb47d05f8,%rsi
    97fe:	ff ff ff 
    9801:	48 39 f0             	cmp    %rsi,%rax
    9804:	76 10                	jbe    9816 <_ZN66_$LT$nix..sys..time..TimeSpec$u20$as$u20$core..ops..arith..Sub$GT$3sub17h3d66a412f641872bE+0xb6>
    9806:	81 e1 00 ca 9a 3b    	and    $0x3b9aca00,%ecx
    980c:	4c 01 c1             	add    %r8,%rcx
    980f:	48 89 d0             	mov    %rdx,%rax
    9812:	48 89 ca             	mov    %rcx,%rdx
    9815:	c3                   	retq   
    9816:	50                   	push   %rax
    9817:	48 8d 3d a2 51 03 00 	lea    0x351a2(%rip),%rdi        # 3e9c0 <_fini+0xb3c>
    981e:	48 8d 15 83 28 24 00 	lea    0x242883(%rip),%rdx        # 24c0a8 <anon.301c5d4cbd7f8c5b61df91e2cad8fefb.0.llvm.13767110465242657722+0x270>
    9825:	be 16 00 00 00       	mov    $0x16,%esi
    982a:	e8 a1 c2 ff ff       	callq  5ad0 <_ZN3std9panicking11begin_panic17h3e5bd4fe70e898a7E>
    982f:	0f 0b                	ud2    
    9831:	66 2e 0f 1f 84 00 00 	nopw   %cs:0x0(%rax,%rax,1)
    9838:	00 00 00 
    983b:	0f 1f 44 00 00       	nopl   0x0(%rax,%rax,1)

0000000000009840 <_ZN77_$LT$nix..sys..time..TimeSpec$u20$as$u20$core..ops..arith..Div$LT$i32$GT$$GT$3div17hd32cd6a6c9dcc4deE>:
    9840:	50                   	push   %rax
    9841:	89 d1                	mov    %edx,%ecx
    9843:	48 85 ff             	test   %rdi,%rdi
    9846:	0f 98 c2             	sets   %dl
    9849:	48 85 f6             	test   %rsi,%rsi
    984c:	0f 9f c0             	setg   %al
    984f:	20 d0                	and    %dl,%al
    9851:	48 8d 96 00 36 65 c4 	lea    -0x3b9aca00(%rsi),%rdx
    9858:	84 c0                	test   %al,%al
    985a:	48 0f 44 d6          	cmove  %rsi,%rdx
    985e:	85 c9                	test   %ecx,%ecx
    9860:	0f 84 a6 00 00 00    	je     990c <_ZN77_$LT$nix..sys..time..TimeSpec$u20$as$u20$core..ops..arith..Div$LT$i32$GT$$GT$3div17hd32cd6a6c9dcc4deE+0xcc>
    9866:	0f b6 c0             	movzbl %al,%eax
    9869:	48 01 f8             	add    %rdi,%rax
    986c:	48 69 c0 00 ca 9a 3b 	imul   $0x3b9aca00,%rax,%rax
    9873:	48 01 d0             	add    %rdx,%rax
    9876:	83 f9 ff             	cmp    $0xffffffff,%ecx
    9879:	75 13                	jne    988e <_ZN77_$LT$nix..sys..time..TimeSpec$u20$as$u20$core..ops..arith..Div$LT$i32$GT$$GT$3div17hd32cd6a6c9dcc4deE+0x4e>
    987b:	48 ba 00 00 00 00 00 	movabs $0x8000000000000000,%rdx
    9882:	00 00 80 
    9885:	48 39 d0             	cmp    %rdx,%rax
    9888:	0f 84 99 00 00 00    	je     9927 <_ZN77_$LT$nix..sys..time..TimeSpec$u20$as$u20$core..ops..arith..Div$LT$i32$GT$$GT$3div17hd32cd6a6c9dcc4deE+0xe7>
    988e:	48 63 f1             	movslq %ecx,%rsi
    9891:	48 89 c2             	mov    %rax,%rdx
    9894:	48 09 f2             	or     %rsi,%rdx
    9897:	48 c1 ea 20          	shr    $0x20,%rdx
    989b:	74 0a                	je     98a7 <_ZN77_$LT$nix..sys..time..TimeSpec$u20$as$u20$core..ops..arith..Div$LT$i32$GT$$GT$3div17hd32cd6a6c9dcc4deE+0x67>
    989d:	48 99                	cqto   
    989f:	48 f7 fe             	idiv   %rsi
    98a2:	48 89 c1             	mov    %rax,%rcx
    98a5:	eb 06                	jmp    98ad <_ZN77_$LT$nix..sys..time..TimeSpec$u20$as$u20$core..ops..arith..Div$LT$i32$GT$$GT$3div17hd32cd6a6c9dcc4deE+0x6d>
    98a7:	31 d2                	xor    %edx,%edx
    98a9:	f7 f1                	div    %ecx
    98ab:	89 c1                	mov    %eax,%ecx
    98ad:	48 ba b3 94 d6 26 e8 	movabs $0x112e0be826d694b3,%rdx
    98b4:	0b 2e 11 
    98b7:	48 89 c8             	mov    %rcx,%rax
    98ba:	48 f7 ea             	imul   %rdx
    98bd:	48 89 d0             	mov    %rdx,%rax
    98c0:	48 c1 e8 3f          	shr    $0x3f,%rax
    98c4:	48 c1 fa 1a          	sar    $0x1a,%rdx
    98c8:	48 01 c2             	add    %rax,%rdx
    98cb:	48 69 c2 00 ca 9a 3b 	imul   $0x3b9aca00,%rdx,%rax
    98d2:	48 29 c1             	sub    %rax,%rcx
    98d5:	48 89 ce             	mov    %rcx,%rsi
    98d8:	48 c1 fe 3f          	sar    $0x3f,%rsi
    98dc:	48 01 f2             	add    %rsi,%rdx
    98df:	48 b8 fc 82 3e da fd 	movabs $0xfffffffdda3e82fc,%rax
    98e6:	ff ff ff 
    98e9:	48 01 d0             	add    %rdx,%rax
    98ec:	48 bf f8 05 7d b4 fb 	movabs $0xfffffffbb47d05f8,%rdi
    98f3:	ff ff ff 
    98f6:	48 39 f8             	cmp    %rdi,%rax
    98f9:	76 47                	jbe    9942 <_ZN77_$LT$nix..sys..time..TimeSpec$u20$as$u20$core..ops..arith..Div$LT$i32$GT$$GT$3div17hd32cd6a6c9dcc4deE+0x102>
    98fb:	81 e6 00 ca 9a 3b    	and    $0x3b9aca00,%esi
    9901:	48 01 ce             	add    %rcx,%rsi
    9904:	48 89 d0             	mov    %rdx,%rax
    9907:	48 89 f2             	mov    %rsi,%rdx
    990a:	59                   	pop    %rcx
    990b:	c3                   	retq   
    990c:	48 8d 3d 5d 51 03 00 	lea    0x3515d(%rip),%rdi        # 3ea70 <str.1>
